SF:/Users/oliverrice/Documents/supabase/etl/etl-config/src/secret.rs
FN:48,_RINvXs2_NtCsgORnoRTAk5w_10etl_config6secretNtB6_24SerializableSecretStringNtNtCs70ZOQfte77C_5serde3ser9Serialize9serializeINtNtCsgEp2nT7LYSq_10serde_json3ser18RawValueStrEmitterQINtNtCsiTraAjBDcu4_5alloc3vec3VechENtB1Z_16CompactFormatterEECs4cZhgjLB9Y4_16etl_destinations
FN:48,_RINvXs2_NtCsgORnoRTAk5w_10etl_config6secretNtB6_24SerializableSecretStringNtNtCs70ZOQfte77C_5serde3ser9Serialize9serializeQINtNtCsgEp2nT7LYSq_10serde_json3ser10SerializerQINtNtCsiTraAjBDcu4_5alloc3vec3VechEEECs4cZhgjLB9Y4_16etl_destinations
FN:60,_RINvXs3_NtCsgORnoRTAk5w_10etl_config6secretNtB6_24SerializableSecretStringNtNtCs70ZOQfte77C_5serde2de11Deserialize11deserializeINtNvNtNtB1e_9___private2de13missing_field24MissingFieldDeserializerNtNtCsgEp2nT7LYSq_10serde_json5error5ErrorEECs4cZhgjLB9Y4_16etl_destinations
FN:60,_RINvXs3_NtCsgORnoRTAk5w_10etl_config6secretNtB6_24SerializableSecretStringNtNtCs70ZOQfte77C_5serde2de11Deserialize11deserializeQINtNtCsgEp2nT7LYSq_10serde_json2de12DeserializerNtNtB27_4read7StrReadEECs4cZhgjLB9Y4_16etl_destinations
FN:18,_RNvXNtCsgORnoRTAk5w_10etl_config6secretNtB2_24SerializableSecretStringNtNtNtCsaNl6UpbT7bw_4core3ops5deref5Deref5deref
FN:32,_RNvXs0_NtCsgORnoRTAk5w_10etl_config6secretNtB5_24SerializableSecretStringINtNtCsaNl6UpbT7bw_4core7convert4FromINtCshXqH3LIEf1J_7secrecy9SecretBoxeEE4from
FN:25,_RNvXs_NtCsgORnoRTAk5w_10etl_config6secretNtB4_24SerializableSecretStringINtNtCsaNl6UpbT7bw_4core7convert4FromNtNtCsiTraAjBDcu4_5alloc6string6StringE4from
FNDA:0,_RINvXs2_NtCsgORnoRTAk5w_10etl_config6secretNtB6_24SerializableSecretStringNtNtCs70ZOQfte77C_5serde3ser9Serialize9serializeINtNtCsgEp2nT7LYSq_10serde_json3ser18RawValueStrEmitterQINtNtCsiTraAjBDcu4_5alloc3vec3VechENtB1Z_16CompactFormatterEECs4cZhgjLB9Y4_16etl_destinations
FNDA:0,_RINvXs2_NtCsgORnoRTAk5w_10etl_config6secretNtB6_24SerializableSecretStringNtNtCs70ZOQfte77C_5serde3ser9Serialize9serializeQINtNtCsgEp2nT7LYSq_10serde_json3ser10SerializerQINtNtCsiTraAjBDcu4_5alloc3vec3VechEEECs4cZhgjLB9Y4_16etl_destinations
FNDA:0,_RINvXs3_NtCsgORnoRTAk5w_10etl_config6secretNtB6_24SerializableSecretStringNtNtCs70ZOQfte77C_5serde2de11Deserialize11deserializeINtNvNtNtB1e_9___private2de13missing_field24MissingFieldDeserializerNtNtCsgEp2nT7LYSq_10serde_json5error5ErrorEECs4cZhgjLB9Y4_16etl_destinations
FNDA:0,_RINvXs3_NtCsgORnoRTAk5w_10etl_config6secretNtB6_24SerializableSecretStringNtNtCs70ZOQfte77C_5serde2de11Deserialize11deserializeQINtNtCsgEp2nT7LYSq_10serde_json2de12DeserializerNtNtB27_4read7StrReadEECs4cZhgjLB9Y4_16etl_destinations
FNDA:0,_RNvXNtCsgORnoRTAk5w_10etl_config6secretNtB2_24SerializableSecretStringNtNtNtCsaNl6UpbT7bw_4core3ops5deref5Deref5deref
FNDA:0,_RNvXs0_NtCsgORnoRTAk5w_10etl_config6secretNtB5_24SerializableSecretStringINtNtCsaNl6UpbT7bw_4core7convert4FromINtCshXqH3LIEf1J_7secrecy9SecretBoxeEE4from
FNDA:0,_RNvXs_NtCsgORnoRTAk5w_10etl_config6secretNtB4_24SerializableSecretStringINtNtCsaNl6UpbT7bw_4core7convert4FromNtNtCsiTraAjBDcu4_5alloc6string6StringE4from
FNF:5
FNH:0
DA:18,0
DA:19,0
DA:20,0
DA:25,0
DA:26,0
DA:27,0
DA:32,0
DA:33,0
DA:34,0
DA:48,0
DA:49,0
DA:50,0
DA:52,0
DA:53,0
DA:60,0
DA:61,0
DA:62,0
DA:64,0
DA:65,0
DA:66,0
BRF:0
BRH:0
LF:20
LH:0
end_of_record
SF:/Users/oliverrice/Documents/supabase/etl/etl-destinations/src/iceberg/client.rs
FN:211,_RNvMNtNtCs4cZhgjLB9Y4_16etl_destinations7iceberg6clientNtB2_20IcebergOperationType9into_cell
FN:895,_RNvMs0_NtNtCs4cZhgjLB9Y4_16etl_destinations7iceberg6clientNtB5_13IcebergClient11catalog_uri
FN:321,_RNvMs0_NtNtCs4cZhgjLB9Y4_16etl_destinations7iceberg6clientNtB5_13IcebergClient21new_with_rest_catalog
FN:339,_RNvMs0_NtNtCs4cZhgjLB9Y4_16etl_destinations7iceberg6clientNtB5_13IcebergClient32new_with_rest_catalog_and_config
FN:905,_RNvMs0_NtNtCs4cZhgjLB9Y4_16etl_destinations7iceberg6clientNtB5_13IcebergClient9namespace
FN:222,_RNvXs_NtNtCs4cZhgjLB9Y4_16etl_destinations7iceberg6clientNtB4_20IcebergOperationTypeNtNtCsaNl6UpbT7bw_4core3fmt7Display3fmt
FN:1693,_RNCNvNtNtNtCs4cZhgjLB9Y4_16etl_destinations7iceberg6client5testss_20test_client_creation0B9_
FN:1711,_RNCNvNtNtNtCs4cZhgjLB9Y4_16etl_destinations7iceberg6client5testss_35test_client_creation_invalid_config0B9_
FN:1693,_RNvNtNtNtCs4cZhgjLB9Y4_16etl_destinations7iceberg6client5testss_20test_client_creation
FN:1906,_RNvNtNtNtCs4cZhgjLB9Y4_16etl_destinations7iceberg6client5testss_24test_field_id_generation
FN:1723,_RNvNtNtNtCs4cZhgjLB9Y4_16etl_destinations7iceberg6client5testss_27test_operation_type_display
FN:1802,_RNvNtNtNtCs4cZhgjLB9Y4_16etl_destinations7iceberg6client5testss_29test_cdc_metadata_integration
FN:1729,_RNvNtNtNtCs4cZhgjLB9Y4_16etl_destinations7iceberg6client5testss_29test_operation_type_into_cell
FN:1744,_RNvNtNtNtCs4cZhgjLB9Y4_16etl_destinations7iceberg6client5testss_31test_schema_conversion_to_arrow
FN:1879,_RNvNtNtNtCs4cZhgjLB9Y4_16etl_destinations7iceberg6client5testss_33test_schema_management_validation
FN:1835,_RNvNtNtNtCs4cZhgjLB9Y4_16etl_destinations7iceberg6client5testss_34test_table_row_to_arrow_conversion
FN:1711,_RNvNtNtNtCs4cZhgjLB9Y4_16etl_destinations7iceberg6client5testss_35test_client_creation_invalid_config
FN:1919,_RNvNtNtNtCs4cZhgjLB9Y4_16etl_destinations7iceberg6client5testss_36test_schema_evolution_error_handling
FN:1539,_RNCNCNvMs0_NtNtCs4cZhgjLB9Y4_16etl_destinations7iceberg6clientNtB9_13IcebergClient10add_column00Bd_
FN:1631,_RNCNCNvMs0_NtNtCs4cZhgjLB9Y4_16etl_destinations7iceberg6clientNtB9_13IcebergClient11drop_column00Bd_
FN:1640,_RNCNCNvMs0_NtNtCs4cZhgjLB9Y4_16etl_destinations7iceberg6clientNtB9_13IcebergClient11drop_column0s0_0Bd_
FN:1633,_RNCNCNvMs0_NtNtCs4cZhgjLB9Y4_16etl_destinations7iceberg6clientNtB9_13IcebergClient11drop_column0s_0Bd_
FN:838,_RNCNCNvMs0_NtNtCs4cZhgjLB9Y4_16etl_destinations7iceberg6clientNtB9_13IcebergClient21list_tables_paginated00Bd_
FN:1134,_RNCNCNvMs0_NtNtCs4cZhgjLB9Y4_16etl_destinations7iceberg6clientNtB9_13IcebergClient38write_record_batch_with_iceberg_writer00Bd_
FN:1173,_RNCNCNvMs0_NtNtCs4cZhgjLB9Y4_16etl_destinations7iceberg6clientNtB9_13IcebergClient38write_record_batch_with_iceberg_writer0s0_0Bd_
FN:1185,_RNCNCNvMs0_NtNtCs4cZhgjLB9Y4_16etl_destinations7iceberg6clientNtB9_13IcebergClient38write_record_batch_with_iceberg_writer0s1_0Bd_
FN:1146,_RNCNCNvMs0_NtNtCs4cZhgjLB9Y4_16etl_destinations7iceberg6clientNtB9_13IcebergClient38write_record_batch_with_iceberg_writer0s_0Bd_
FN:1517,_RNCNvMs0_NtNtCs4cZhgjLB9Y4_16etl_destinations7iceberg6clientNtB7_13IcebergClient10add_column0Bb_
FN:1615,_RNCNvMs0_NtNtCs4cZhgjLB9Y4_16etl_destinations7iceberg6clientNtB7_13IcebergClient11drop_column0Bb_
FN:776,_RNCNvMs0_NtNtCs4cZhgjLB9Y4_16etl_destinations7iceberg6clientNtB7_13IcebergClient11list_tables0Bb_
FN:1263,_RNCNvMs0_NtNtCs4cZhgjLB9Y4_16etl_destinations7iceberg6clientNtB7_13IcebergClient11query_table0Bb_
FN:547,_RNCNvMs0_NtNtCs4cZhgjLB9Y4_16etl_destinations7iceberg6clientNtB7_13IcebergClient11stream_rows0Bb_
FN:744,_RNCNvMs0_NtNtCs4cZhgjLB9Y4_16etl_destinations7iceberg6clientNtB7_13IcebergClient12table_exists0Bb_
FN:1389,_RNCNvMs0_NtNtCs4cZhgjLB9Y4_16etl_destinations7iceberg6clientNtB7_13IcebergClient15scan_data_files0Bb_
FN:694,_RNCNvMs0_NtNtCs4cZhgjLB9Y4_16etl_destinations7iceberg6clientNtB7_13IcebergClient20drop_table_if_exists0Bb_
FN:822,_RNCNvMs0_NtNtCs4cZhgjLB9Y4_16etl_destinations7iceberg6clientNtB7_13IcebergClient21list_tables_paginated0Bb_
FN:1061,_RNCNvMs0_NtNtCs4cZhgjLB9Y4_16etl_destinations7iceberg6clientNtB7_13IcebergClient21track_write_operation0Bb_
FN:441,_RNCNvMs0_NtNtCs4cZhgjLB9Y4_16etl_destinations7iceberg6clientNtB7_13IcebergClient26create_table_if_not_exists0Bb_
FN:558,_RNCNvMs0_NtNtCs4cZhgjLB9Y4_16etl_destinations7iceberg6clientNtB7_13IcebergClient26stream_rows_with_operation0Bb_
FN:1223,_RNCNvMs0_NtNtCs4cZhgjLB9Y4_16etl_destinations7iceberg6clientNtB7_13IcebergClient28write_record_batch_as_delete0Bb_
FN:1026,_RNCNvMs0_NtNtCs4cZhgjLB9Y4_16etl_destinations7iceberg6clientNtB7_13IcebergClient33create_arrow_schema_from_metadata0Bb_
FN:1111,_RNCNvMs0_NtNtCs4cZhgjLB9Y4_16etl_destinations7iceberg6clientNtB7_13IcebergClient38write_record_batch_with_iceberg_writer0Bb_
FN:1511,_RNvMs0_NtNtCs4cZhgjLB9Y4_16etl_destinations7iceberg6clientNtB5_13IcebergClient10add_column
FN:1615,_RNvMs0_NtNtCs4cZhgjLB9Y4_16etl_destinations7iceberg6clientNtB5_13IcebergClient11drop_column
FN:776,_RNvMs0_NtNtCs4cZhgjLB9Y4_16etl_destinations7iceberg6clientNtB5_13IcebergClient11list_tables
FN:1263,_RNvMs0_NtNtCs4cZhgjLB9Y4_16etl_destinations7iceberg6clientNtB5_13IcebergClient11query_table
FN:543,_RNvMs0_NtNtCs4cZhgjLB9Y4_16etl_destinations7iceberg6clientNtB5_13IcebergClient11stream_rows
FN:744,_RNvMs0_NtNtCs4cZhgjLB9Y4_16etl_destinations7iceberg6clientNtB5_13IcebergClient12table_exists
FN:1383,_RNvMs0_NtNtCs4cZhgjLB9Y4_16etl_destinations7iceberg6clientNtB5_13IcebergClient15scan_data_files
FN:925,_RNvMs0_NtNtCs4cZhgjLB9Y4_16etl_destinations7iceberg6clientNtB5_13IcebergClient20check_commit_timeout
FN:964,_RNvMs0_NtNtCs4cZhgjLB9Y4_16etl_destinations7iceberg6clientNtB5_13IcebergClient20clear_commit_timeout
FN:694,_RNvMs0_NtNtCs4cZhgjLB9Y4_16etl_destinations7iceberg6clientNtB5_13IcebergClient20drop_table_if_exists
FN:912,_RNvMs0_NtNtCs4cZhgjLB9Y4_16etl_destinations7iceberg6clientNtB5_13IcebergClient20start_commit_timeout
FN:818,_RNvMs0_NtNtCs4cZhgjLB9Y4_16etl_destinations7iceberg6clientNtB5_13IcebergClient21list_tables_paginated
FN:1061,_RNvMs0_NtNtCs4cZhgjLB9Y4_16etl_destinations7iceberg6clientNtB5_13IcebergClient21track_write_operation
FN:1416,_RNvMs0_NtNtCs4cZhgjLB9Y4_16etl_destinations7iceberg6clientNtB5_13IcebergClient23iceberg_to_arrow_schema
FN:437,_RNvMs0_NtNtCs4cZhgjLB9Y4_16etl_destinations7iceberg6clientNtB5_13IcebergClient26create_table_if_not_exists
FN:553,_RNvMs0_NtNtCs4cZhgjLB9Y4_16etl_destinations7iceberg6clientNtB5_13IcebergClient26stream_rows_with_operation
FN:973,_RNvMs0_NtNtCs4cZhgjLB9Y4_16etl_destinations7iceberg6clientNtB5_13IcebergClient27get_or_create_cached_schema
FN:1433,_RNvMs0_NtNtCs4cZhgjLB9Y4_16etl_destinations7iceberg6clientNtB5_13IcebergClient28iceberg_field_to_arrow_field
FN:1218,_RNvMs0_NtNtCs4cZhgjLB9Y4_16etl_destinations7iceberg6clientNtB5_13IcebergClient28write_record_batch_as_delete
FN:1014,_RNvMs0_NtNtCs4cZhgjLB9Y4_16etl_destinations7iceberg6clientNtB5_13IcebergClient33create_arrow_schema_from_metadata
FN:1106,_RNvMs0_NtNtCs4cZhgjLB9Y4_16etl_destinations7iceberg6clientNtB5_13IcebergClient38write_record_batch_with_iceberg_writer
FN:900,_RNvMs0_NtNtCs4cZhgjLB9Y4_16etl_destinations7iceberg6clientNtB5_13IcebergClient9warehouse
FN:143,_RNvNtNtCs4cZhgjLB9Y4_16etl_destinations7iceberg6client24arrow_error_to_etl_error
FN:58,_RNvNtNtCs4cZhgjLB9Y4_16etl_destinations7iceberg6client26iceberg_error_to_etl_error
FN:170,_RNvNtNtCs4cZhgjLB9Y4_16etl_destinations7iceberg6client26parquet_error_to_etl_error
FN:116,_RNvNtNtCs4cZhgjLB9Y4_16etl_destinations7iceberg6client31object_store_error_to_etl_error
FN:326,_RNCNvMs0_NtNtCs4cZhgjLB9Y4_16etl_destinations7iceberg6clientNtB7_13IcebergClient21new_with_rest_catalog0Bb_
FN:345,_RNCNvMs0_NtNtCs4cZhgjLB9Y4_16etl_destinations7iceberg6clientNtB7_13IcebergClient32new_with_rest_catalog_and_config0Bb_
FNDA:3,_RNvMNtNtCs4cZhgjLB9Y4_16etl_destinations7iceberg6clientNtB2_20IcebergOperationType9into_cell
FNDA:1,_RNvMs0_NtNtCs4cZhgjLB9Y4_16etl_destinations7iceberg6clientNtB5_13IcebergClient11catalog_uri
FNDA:2,_RNvMs0_NtNtCs4cZhgjLB9Y4_16etl_destinations7iceberg6clientNtB5_13IcebergClient21new_with_rest_catalog
FNDA:2,_RNvMs0_NtNtCs4cZhgjLB9Y4_16etl_destinations7iceberg6clientNtB5_13IcebergClient32new_with_rest_catalog_and_config
FNDA:1,_RNvMs0_NtNtCs4cZhgjLB9Y4_16etl_destinations7iceberg6clientNtB5_13IcebergClient9namespace
FNDA:2,_RNvXs_NtNtCs4cZhgjLB9Y4_16etl_destinations7iceberg6clientNtB4_20IcebergOperationTypeNtNtCsaNl6UpbT7bw_4core3fmt7Display3fmt
FNDA:1,_RNCNvNtNtNtCs4cZhgjLB9Y4_16etl_destinations7iceberg6client5testss_20test_client_creation0B9_
FNDA:1,_RNCNvNtNtNtCs4cZhgjLB9Y4_16etl_destinations7iceberg6client5testss_35test_client_creation_invalid_config0B9_
FNDA:1,_RNvNtNtNtCs4cZhgjLB9Y4_16etl_destinations7iceberg6client5testss_20test_client_creation
FNDA:1,_RNvNtNtNtCs4cZhgjLB9Y4_16etl_destinations7iceberg6client5testss_24test_field_id_generation
FNDA:1,_RNvNtNtNtCs4cZhgjLB9Y4_16etl_destinations7iceberg6client5testss_27test_operation_type_display
FNDA:1,_RNvNtNtNtCs4cZhgjLB9Y4_16etl_destinations7iceberg6client5testss_29test_cdc_metadata_integration
FNDA:1,_RNvNtNtNtCs4cZhgjLB9Y4_16etl_destinations7iceberg6client5testss_29test_operation_type_into_cell
FNDA:1,_RNvNtNtNtCs4cZhgjLB9Y4_16etl_destinations7iceberg6client5testss_31test_schema_conversion_to_arrow
FNDA:1,_RNvNtNtNtCs4cZhgjLB9Y4_16etl_destinations7iceberg6client5testss_33test_schema_management_validation
FNDA:1,_RNvNtNtNtCs4cZhgjLB9Y4_16etl_destinations7iceberg6client5testss_34test_table_row_to_arrow_conversion
FNDA:1,_RNvNtNtNtCs4cZhgjLB9Y4_16etl_destinations7iceberg6client5testss_35test_client_creation_invalid_config
FNDA:1,_RNvNtNtNtCs4cZhgjLB9Y4_16etl_destinations7iceberg6client5testss_36test_schema_evolution_error_handling
FNDA:0,_RNCNCNvMs0_NtNtCs4cZhgjLB9Y4_16etl_destinations7iceberg6clientNtB9_13IcebergClient10add_column00Bd_
FNDA:0,_RNCNCNvMs0_NtNtCs4cZhgjLB9Y4_16etl_destinations7iceberg6clientNtB9_13IcebergClient11drop_column00Bd_
FNDA:0,_RNCNCNvMs0_NtNtCs4cZhgjLB9Y4_16etl_destinations7iceberg6clientNtB9_13IcebergClient11drop_column0s0_0Bd_
FNDA:0,_RNCNCNvMs0_NtNtCs4cZhgjLB9Y4_16etl_destinations7iceberg6clientNtB9_13IcebergClient11drop_column0s_0Bd_
FNDA:0,_RNCNCNvMs0_NtNtCs4cZhgjLB9Y4_16etl_destinations7iceberg6clientNtB9_13IcebergClient21list_tables_paginated00Bd_
FNDA:0,_RNCNCNvMs0_NtNtCs4cZhgjLB9Y4_16etl_destinations7iceberg6clientNtB9_13IcebergClient38write_record_batch_with_iceberg_writer00Bd_
FNDA:0,_RNCNCNvMs0_NtNtCs4cZhgjLB9Y4_16etl_destinations7iceberg6clientNtB9_13IcebergClient38write_record_batch_with_iceberg_writer0s0_0Bd_
FNDA:0,_RNCNCNvMs0_NtNtCs4cZhgjLB9Y4_16etl_destinations7iceberg6clientNtB9_13IcebergClient38write_record_batch_with_iceberg_writer0s1_0Bd_
FNDA:0,_RNCNCNvMs0_NtNtCs4cZhgjLB9Y4_16etl_destinations7iceberg6clientNtB9_13IcebergClient38write_record_batch_with_iceberg_writer0s_0Bd_
FNDA:0,_RNCNvMs0_NtNtCs4cZhgjLB9Y4_16etl_destinations7iceberg6clientNtB7_13IcebergClient10add_column0Bb_
FNDA:0,_RNCNvMs0_NtNtCs4cZhgjLB9Y4_16etl_destinations7iceberg6clientNtB7_13IcebergClient11drop_column0Bb_
FNDA:0,_RNCNvMs0_NtNtCs4cZhgjLB9Y4_16etl_destinations7iceberg6clientNtB7_13IcebergClient11list_tables0Bb_
FNDA:0,_RNCNvMs0_NtNtCs4cZhgjLB9Y4_16etl_destinations7iceberg6clientNtB7_13IcebergClient11query_table0Bb_
FNDA:0,_RNCNvMs0_NtNtCs4cZhgjLB9Y4_16etl_destinations7iceberg6clientNtB7_13IcebergClient11stream_rows0Bb_
FNDA:0,_RNCNvMs0_NtNtCs4cZhgjLB9Y4_16etl_destinations7iceberg6clientNtB7_13IcebergClient12table_exists0Bb_
FNDA:0,_RNCNvMs0_NtNtCs4cZhgjLB9Y4_16etl_destinations7iceberg6clientNtB7_13IcebergClient15scan_data_files0Bb_
FNDA:0,_RNCNvMs0_NtNtCs4cZhgjLB9Y4_16etl_destinations7iceberg6clientNtB7_13IcebergClient20drop_table_if_exists0Bb_
FNDA:0,_RNCNvMs0_NtNtCs4cZhgjLB9Y4_16etl_destinations7iceberg6clientNtB7_13IcebergClient21list_tables_paginated0Bb_
FNDA:0,_RNCNvMs0_NtNtCs4cZhgjLB9Y4_16etl_destinations7iceberg6clientNtB7_13IcebergClient21track_write_operation0Bb_
FNDA:0,_RNCNvMs0_NtNtCs4cZhgjLB9Y4_16etl_destinations7iceberg6clientNtB7_13IcebergClient26create_table_if_not_exists0Bb_
FNDA:0,_RNCNvMs0_NtNtCs4cZhgjLB9Y4_16etl_destinations7iceberg6clientNtB7_13IcebergClient26stream_rows_with_operation0Bb_
FNDA:0,_RNCNvMs0_NtNtCs4cZhgjLB9Y4_16etl_destinations7iceberg6clientNtB7_13IcebergClient28write_record_batch_as_delete0Bb_
FNDA:0,_RNCNvMs0_NtNtCs4cZhgjLB9Y4_16etl_destinations7iceberg6clientNtB7_13IcebergClient33create_arrow_schema_from_metadata0Bb_
FNDA:0,_RNCNvMs0_NtNtCs4cZhgjLB9Y4_16etl_destinations7iceberg6clientNtB7_13IcebergClient38write_record_batch_with_iceberg_writer0Bb_
FNDA:0,_RNvMs0_NtNtCs4cZhgjLB9Y4_16etl_destinations7iceberg6clientNtB5_13IcebergClient10add_column
FNDA:0,_RNvMs0_NtNtCs4cZhgjLB9Y4_16etl_destinations7iceberg6clientNtB5_13IcebergClient11drop_column
FNDA:0,_RNvMs0_NtNtCs4cZhgjLB9Y4_16etl_destinations7iceberg6clientNtB5_13IcebergClient11list_tables
FNDA:0,_RNvMs0_NtNtCs4cZhgjLB9Y4_16etl_destinations7iceberg6clientNtB5_13IcebergClient11query_table
FNDA:0,_RNvMs0_NtNtCs4cZhgjLB9Y4_16etl_destinations7iceberg6clientNtB5_13IcebergClient11stream_rows
FNDA:0,_RNvMs0_NtNtCs4cZhgjLB9Y4_16etl_destinations7iceberg6clientNtB5_13IcebergClient12table_exists
FNDA:0,_RNvMs0_NtNtCs4cZhgjLB9Y4_16etl_destinations7iceberg6clientNtB5_13IcebergClient15scan_data_files
FNDA:0,_RNvMs0_NtNtCs4cZhgjLB9Y4_16etl_destinations7iceberg6clientNtB5_13IcebergClient20check_commit_timeout
FNDA:0,_RNvMs0_NtNtCs4cZhgjLB9Y4_16etl_destinations7iceberg6clientNtB5_13IcebergClient20clear_commit_timeout
FNDA:0,_RNvMs0_NtNtCs4cZhgjLB9Y4_16etl_destinations7iceberg6clientNtB5_13IcebergClient20drop_table_if_exists
FNDA:0,_RNvMs0_NtNtCs4cZhgjLB9Y4_16etl_destinations7iceberg6clientNtB5_13IcebergClient20start_commit_timeout
FNDA:0,_RNvMs0_NtNtCs4cZhgjLB9Y4_16etl_destinations7iceberg6clientNtB5_13IcebergClient21list_tables_paginated
FNDA:0,_RNvMs0_NtNtCs4cZhgjLB9Y4_16etl_destinations7iceberg6clientNtB5_13IcebergClient21track_write_operation
FNDA:0,_RNvMs0_NtNtCs4cZhgjLB9Y4_16etl_destinations7iceberg6clientNtB5_13IcebergClient23iceberg_to_arrow_schema
FNDA:0,_RNvMs0_NtNtCs4cZhgjLB9Y4_16etl_destinations7iceberg6clientNtB5_13IcebergClient26create_table_if_not_exists
FNDA:0,_RNvMs0_NtNtCs4cZhgjLB9Y4_16etl_destinations7iceberg6clientNtB5_13IcebergClient26stream_rows_with_operation
FNDA:0,_RNvMs0_NtNtCs4cZhgjLB9Y4_16etl_destinations7iceberg6clientNtB5_13IcebergClient27get_or_create_cached_schema
FNDA:0,_RNvMs0_NtNtCs4cZhgjLB9Y4_16etl_destinations7iceberg6clientNtB5_13IcebergClient28iceberg_field_to_arrow_field
FNDA:0,_RNvMs0_NtNtCs4cZhgjLB9Y4_16etl_destinations7iceberg6clientNtB5_13IcebergClient28write_record_batch_as_delete
FNDA:0,_RNvMs0_NtNtCs4cZhgjLB9Y4_16etl_destinations7iceberg6clientNtB5_13IcebergClient33create_arrow_schema_from_metadata
FNDA:0,_RNvMs0_NtNtCs4cZhgjLB9Y4_16etl_destinations7iceberg6clientNtB5_13IcebergClient38write_record_batch_with_iceberg_writer
FNDA:0,_RNvMs0_NtNtCs4cZhgjLB9Y4_16etl_destinations7iceberg6clientNtB5_13IcebergClient9warehouse
FNDA:0,_RNvNtNtCs4cZhgjLB9Y4_16etl_destinations7iceberg6client24arrow_error_to_etl_error
FNDA:0,_RNvNtNtCs4cZhgjLB9Y4_16etl_destinations7iceberg6client26iceberg_error_to_etl_error
FNDA:0,_RNvNtNtCs4cZhgjLB9Y4_16etl_destinations7iceberg6client26parquet_error_to_etl_error
FNDA:0,_RNvNtNtCs4cZhgjLB9Y4_16etl_destinations7iceberg6client31object_store_error_to_etl_error
FNDA:2,_RNCNvMs0_NtNtCs4cZhgjLB9Y4_16etl_destinations7iceberg6clientNtB7_13IcebergClient21new_with_rest_catalog0Bb_
FNDA:2,_RNCNvMs0_NtNtCs4cZhgjLB9Y4_16etl_destinations7iceberg6clientNtB7_13IcebergClient32new_with_rest_catalog_and_config0Bb_
FNF:70
FNH:20
DA:58,0
DA:59,0
DA:61,0
DA:62,0
DA:64,0
DA:65,0
DA:67,0
DA:68,0
DA:72,0
DA:73,0
DA:75,0
DA:76,0
DA:80,0
DA:81,0
DA:83,0
DA:84,0
DA:86,0
DA:87,0
DA:91,0
DA:92,0
DA:96,0
DA:97,0
DA:99,0
DA:100,0
DA:104,0
DA:105,0
DA:109,0
DA:112,0
DA:113,0
DA:116,0
DA:117,0
DA:119,0
DA:122,0
DA:125,0
DA:128,0
DA:131,0
DA:134,0
DA:136,0
DA:139,0
DA:140,0
DA:143,0
DA:144,0
DA:145,0
DA:146,0
DA:148,0
DA:149,0
DA:151,0
DA:152,0
DA:154,0
DA:155,0
DA:157,0
DA:158,0
DA:160,0
DA:161,0
DA:163,0
DA:166,0
DA:167,0
DA:170,0
DA:171,0
DA:172,0
DA:173,0
DA:175,0
DA:176,0
DA:178,0
DA:179,0
DA:181,0
DA:182,0
DA:184,0
DA:185,0
DA:187,0
DA:188,0
DA:190,0
DA:193,0
DA:194,0
DA:211,3
DA:212,3
DA:213,2
DA:214,1
DA:216,3
DA:217,3
DA:222,2
DA:223,2
DA:224,1
DA:225,1
DA:227,2
DA:321,2
DA:322,2
DA:323,2
DA:324,2
DA:325,2
DA:326,2
DA:327,2
DA:328,2
DA:329,2
DA:330,2
DA:331,2
DA:332,2
DA:333,2
DA:334,2
DA:339,2
DA:340,2
DA:341,2
DA:342,2
DA:343,2
DA:344,2
DA:345,2
DA:346,2
DA:347,1
DA:348,1
DA:349,1
DA:350,1
DA:351,1
DA:352,1
DA:354,1
DA:355,0
DA:356,0
DA:357,0
DA:358,0
DA:359,0
DA:360,1
DA:362,1
DA:363,0
DA:364,0
DA:365,0
DA:366,0
DA:367,0
DA:368,1
DA:371,1
DA:372,1
DA:373,1
DA:376,1
DA:377,0
DA:380,1
DA:382,1
DA:384,1
DA:387,1
DA:390,1
DA:392,0
DA:395,0
DA:396,0
DA:397,0
DA:398,0
DA:401,0
DA:405,1
DA:406,1
DA:409,0
DA:414,1
DA:418,0
DA:421,1
DA:422,1
DA:423,1
DA:424,1
DA:425,1
DA:426,1
DA:427,1
DA:428,1
DA:429,1
DA:430,1
DA:431,2
DA:437,0
DA:438,0
DA:439,0
DA:440,0
DA:441,0
DA:442,0
DA:445,0
DA:446,0
DA:449,0
DA:450,0
DA:453,0
DA:455,0
DA:456,0
DA:459,0
DA:461,0
DA:462,0
DA:465,0
DA:471,0
DA:472,0
DA:475,0
DA:476,0
DA:477,0
DA:478,0
DA:480,0
DA:481,0
DA:482,0
DA:483,0
DA:485,0
DA:488,0
DA:491,0
DA:492,0
DA:543,0
DA:544,0
DA:545,0
DA:546,0
DA:547,0
DA:549,0
DA:550,0
DA:553,0
DA:554,0
DA:555,0
DA:556,0
DA:557,0
DA:558,0
DA:559,0
DA:560,0
DA:561,0
DA:564,0
DA:566,0
DA:568,0
DA:571,0
DA:578,0
DA:580,0
DA:582,0
DA:583,0
DA:584,0
DA:587,0
DA:588,0
DA:591,0
DA:593,0
DA:594,0
DA:595,0
DA:598,0
DA:599,0
DA:601,0
DA:603,0
DA:604,0
DA:605,0
DA:606,0
DA:608,0
DA:610,0
DA:611,0
DA:612,0
DA:616,0
DA:617,0
DA:618,0
DA:619,0
DA:620,0
DA:624,0
DA:626,0
DA:627,0
DA:628,0
DA:629,0
DA:633,0
DA:636,0
DA:641,0
DA:645,0
DA:646,0
DA:647,0
DA:648,0
DA:650,0
DA:651,0
DA:652,0
DA:653,0
DA:655,0
DA:657,0
DA:659,0
DA:660,0
DA:662,0
DA:667,0
DA:669,0
DA:671,0
DA:674,0
DA:676,0
DA:678,0
DA:679,0
DA:683,0
DA:685,0
DA:688,0
DA:694,0
DA:695,0
DA:698,0
DA:701,0
DA:702,0
DA:705,0
DA:707,0
DA:709,0
DA:711,0
DA:713,0
DA:714,0
DA:717,0
DA:723,0
DA:725,0
DA:726,0
DA:729,0
DA:734,0
DA:736,0
DA:739,0
DA:740,0
DA:744,0
DA:745,0
DA:748,0
DA:751,0
DA:752,0
DA:754,0
DA:755,0
DA:756,0
DA:759,0
DA:761,0
DA:763,0
DA:764,0
DA:767,0
DA:769,0
DA:772,0
DA:776,0
DA:777,0
DA:778,0
DA:818,0
DA:819,0
DA:820,0
DA:821,0
DA:822,0
DA:823,0
DA:825,0
DA:828,0
DA:829,0
DA:832,0
DA:834,0
DA:835,0
DA:836,0
DA:837,0
DA:838,0
DA:839,0
DA:842,0
DA:843,0
DA:845,0
DA:849,0
DA:850,0
DA:851,0
DA:853,0
DA:857,0
DA:858,0
DA:859,0
DA:861,0
DA:864,0
DA:866,0
DA:867,0
DA:870,0
DA:873,0
DA:874,0
DA:875,0
DA:876,0
DA:877,0
DA:879,0
DA:880,0
DA:883,0
DA:885,0
DA:886,0
DA:887,0
DA:888,0
DA:889,0
DA:892,0
DA:895,1
DA:896,1
DA:897,1
DA:900,0
DA:901,0
DA:902,0
DA:905,1
DA:906,1
DA:907,1
DA:912,0
DA:913,0
DA:914,0
DA:916,0
DA:918,0
DA:920,0
DA:925,0
DA:926,0
DA:928,0
DA:929,0
DA:930,0
DA:932,0
DA:933,0
DA:934,0
DA:936,0
DA:939,0
DA:940,0
DA:941,0
DA:942,0
DA:943,0
DA:944,0
DA:945,0
DA:946,0
DA:947,0
DA:948,0
DA:950,0
DA:951,0
DA:953,0
DA:954,0
DA:956,0
DA:958,0
DA:959,0
DA:964,0
DA:965,0
DA:966,0
DA:968,0
DA:969,0
DA:973,0
DA:974,0
DA:975,0
DA:976,0
DA:977,0
DA:980,0
DA:981,0
DA:982,0
DA:983,0
DA:984,0
DA:988,0
DA:991,0
DA:992,0
DA:993,0
DA:994,0
DA:997,0
DA:998,0
DA:1001,0
DA:1003,0
DA:1005,0
DA:1006,0
DA:1009,0
DA:1010,0
DA:1014,0
DA:1015,0
DA:1017,0
DA:1018,0
DA:1019,0
DA:1023,0
DA:1026,0
DA:1030,0
DA:1032,0
DA:1035,0
DA:1037,0
DA:1040,0
DA:1042,0
DA:1046,0
DA:1048,0
DA:1049,0
DA:1050,0
DA:1051,0
DA:1052,0
DA:1055,0
DA:1056,0
DA:1061,0
DA:1068,0
DA:1073,0
DA:1076,0
DA:1077,0
DA:1106,0
DA:1107,0
DA:1108,0
DA:1109,0
DA:1110,0
DA:1111,0
DA:1112,0
DA:1113,0
DA:1114,0
DA:1115,0
DA:1116,0
DA:1123,0
DA:1124,0
DA:1125,0
DA:1127,0
DA:1131,0
DA:1132,0
DA:1133,0
DA:1134,0
DA:1136,0
DA:1137,0
DA:1140,0
DA:1141,0
DA:1145,0
DA:1146,0
DA:1150,0
DA:1153,0
DA:1154,0
DA:1155,0
DA:1156,0
DA:1157,0
DA:1160,0
DA:1161,0
DA:1164,0
DA:1165,0
DA:1169,0
DA:1172,0
DA:1173,0
DA:1178,0
DA:1179,0
DA:1180,0
DA:1181,0
DA:1182,0
DA:1183,0
DA:1184,0
DA:1185,0
DA:1193,0
DA:1194,0
DA:1197,0
DA:1200,0
DA:1201,0
DA:1204,0
DA:1205,0
DA:1206,0
DA:1207,0
DA:1210,0
DA:1211,0
DA:1214,0
DA:1215,0
DA:1218,0
DA:1219,0
DA:1220,0
DA:1221,0
DA:1222,0
DA:1223,0
DA:1224,0
DA:1225,0
DA:1226,0
DA:1227,0
DA:1228,0
DA:1238,0
DA:1239,0
DA:1240,0
DA:1241,0
DA:1245,0
DA:1246,0
DA:1247,0
DA:1249,0
DA:1258,0
DA:1259,0
DA:1263,0
DA:1264,0
DA:1268,0
DA:1271,0
DA:1272,0
DA:1275,0
DA:1276,0
DA:1277,0
DA:1278,0
DA:1281,0
DA:1283,0
DA:1288,0
DA:1289,0
DA:1291,0
DA:1292,0
DA:1294,0
DA:1296,0
DA:1297,0
DA:1299,0
DA:1300,0
DA:1302,0
DA:1303,0
DA:1307,0
DA:1308,0
DA:1311,0
DA:1312,0
DA:1313,0
DA:1316,0
DA:1317,0
DA:1320,0
DA:1330,0
DA:1331,0
DA:1334,0
DA:1338,0
DA:1344,0
DA:1348,0
DA:1349,0
DA:1350,0
DA:1351,0
DA:1352,0
DA:1353,0
DA:1354,0
DA:1355,0
DA:1358,0
DA:1360,0
DA:1364,0
DA:1366,0
DA:1369,0
DA:1371,0
DA:1375,0
DA:1376,0
DA:1377,0
DA:1379,0
DA:1380,0
DA:1383,0
DA:1384,0
DA:1385,0
DA:1386,0
DA:1387,0
DA:1388,0
DA:1389,0
DA:1390,0
DA:1392,0
DA:1399,0
DA:1400,0
DA:1401,0
DA:1407,0
DA:1409,0
DA:1412,0
DA:1413,0
DA:1416,0
DA:1417,0
DA:1418,0
DA:1419,0
DA:1421,0
DA:1423,0
DA:1424,0
DA:1425,0
DA:1428,0
DA:1429,0
DA:1430,0
DA:1433,0
DA:1434,0
DA:1435,0
DA:1436,0
DA:1439,0
DA:1440,0
DA:1441,0
DA:1442,0
DA:1443,0
DA:1444,0
DA:1445,0
DA:1446,0
DA:1447,0
DA:1448,0
DA:1449,0
DA:1450,0
DA:1451,0
DA:1452,0
DA:1454,0
DA:1457,0
DA:1459,0
DA:1462,0
DA:1464,0
DA:1466,0
DA:1468,0
DA:1470,0
DA:1472,0
DA:1474,0
DA:1476,0
DA:1478,0
DA:1480,0
DA:1482,0
DA:1484,0
DA:1488,0
DA:1489,0
DA:1511,0
DA:1512,0
DA:1513,0
DA:1514,0
DA:1515,0
DA:1516,0
DA:1517,0
DA:1518,0
DA:1521,0
DA:1523,0
DA:1526,0
DA:1527,0
DA:1530,0
DA:1533,0
DA:1534,0
DA:1537,0
DA:1538,0
DA:1539,0
DA:1540,0
DA:1541,0
DA:1546,0
DA:1547,0
DA:1549,0
DA:1553,0
DA:1554,0
DA:1556,0
DA:1557,0
DA:1558,0
DA:1559,0
DA:1581,0
DA:1585,0
DA:1588,0
DA:1592,0
DA:1595,0
DA:1596,0
DA:1615,0
DA:1616,0
DA:1619,0
DA:1622,0
DA:1623,0
DA:1626,0
DA:1629,0
DA:1630,0
DA:1631,0
DA:1632,0
DA:1633,0
DA:1635,0
DA:1636,0
DA:1639,0
DA:1640,0
DA:1641,0
DA:1642,0
DA:1644,0
DA:1645,0
DA:1646,0
DA:1647,0
DA:1669,0
DA:1672,0
DA:1673,0
DA:1676,0
DA:1679,0
DA:1680,0
DA:1683,0
DA:1684,0
DA:1693,1
DA:1694,1
DA:1695,1
DA:1696,1
DA:1697,1
DA:1698,1
DA:1699,1
DA:1703,1
DA:1704,1
DA:1705,1
DA:1706,1
DA:1707,1
DA:1708,1
DA:1711,1
DA:1712,1
DA:1713,1
DA:1714,1
DA:1715,1
DA:1716,1
DA:1717,1
DA:1719,1
DA:1720,1
DA:1723,1
DA:1724,1
DA:1725,1
DA:1726,1
DA:1729,1
DA:1730,1
DA:1731,1
DA:1732,1
DA:1733,0
DA:1736,1
DA:1737,1
DA:1738,1
DA:1739,0
DA:1741,1
DA:1744,1
DA:1749,1
DA:1750,1
DA:1751,1
DA:1752,1
DA:1753,1
DA:1754,1
DA:1755,1
DA:1756,1
DA:1757,1
DA:1758,1
DA:1759,1
DA:1760,1
DA:1761,1
DA:1762,1
DA:1763,1
DA:1764,1
DA:1765,1
DA:1766,1
DA:1767,1
DA:1768,1
DA:1769,1
DA:1770,1
DA:1773,1
DA:1774,1
DA:1775,1
DA:1776,1
DA:1777,1
DA:1779,1
DA:1780,1
DA:1783,1
DA:1786,1
DA:1787,1
DA:1789,1
DA:1790,1
DA:1792,1
DA:1793,1
DA:1796,1
DA:1797,1
DA:1798,1
DA:1799,1
DA:1802,1
DA:1806,1
DA:1807,1
DA:1808,1
DA:1809,1
DA:1810,1
DA:1811,1
DA:1812,1
DA:1815,1
DA:1816,1
DA:1819,1
DA:1822,1
DA:1823,1
DA:1824,0
DA:1828,1
DA:1829,1
DA:1830,0
DA:1832,1
DA:1835,1
DA:1839,1
DA:1840,1
DA:1841,1
DA:1842,1
DA:1843,1
DA:1844,1
DA:1845,1
DA:1846,1
DA:1847,1
DA:1848,1
DA:1849,1
DA:1850,1
DA:1851,1
DA:1852,1
DA:1853,1
DA:1854,1
DA:1855,1
DA:1856,1
DA:1857,1
DA:1862,1
DA:1863,1
DA:1864,1
DA:1867,1
DA:1868,1
DA:1869,0
DA:1872,1
DA:1873,1
DA:1874,0
DA:1876,1
DA:1879,1
DA:1886,1
DA:1887,1
DA:1888,1
DA:1891,1
DA:1894,1
DA:1895,1
DA:1896,1
DA:1900,1
DA:1901,1
DA:1902,1
DA:1903,1
DA:1906,1
DA:1908,1
DA:1909,1
DA:1910,1
DA:1913,1
DA:1914,1
DA:1915,1
DA:1916,1
DA:1919,1
DA:1924,1
DA:1925,1
DA:1926,1
DA:1928,1
DA:1931,1
DA:1932,1
DA:1933,1
BRF:0
BRH:0
LF:891
LH:228
end_of_record
SF:/Users/oliverrice/Documents/supabase/etl/etl-destinations/src/iceberg/config.rs
FN:244,_RNvMs1_NtNtCs4cZhgjLB9Y4_16etl_destinations7iceberg6configNtB5_13IcebergConfig13aws_s3_tables
FN:303,_RNvMs2_NtNtCs4cZhgjLB9Y4_16etl_destinations7iceberg6configNtB5_12WriterConfig13aws_optimized
FN:181,_RNvNtNtCs4cZhgjLB9Y4_16etl_destinations7iceberg6config18default_batch_size
FN:201,_RNvNtNtCs4cZhgjLB9Y4_16etl_destinations7iceberg6config21default_track_changes
FN:205,_RNvNtNtCs4cZhgjLB9Y4_16etl_destinations7iceberg6config22default_add_lsn_column
FN:197,_RNvNtNtCs4cZhgjLB9Y4_16etl_destinations7iceberg6config22default_enable_deletes
FN:193,_RNvNtNtCs4cZhgjLB9Y4_16etl_destinations7iceberg6config22default_enable_metrics
FN:189,_RNvNtNtCs4cZhgjLB9Y4_16etl_destinations7iceberg6config26default_max_commit_time_ms
FN:209,_RNvNtNtCs4cZhgjLB9Y4_16etl_destinations7iceberg6config28default_add_timestamp_column
FN:185,_RNvNtNtCs4cZhgjLB9Y4_16etl_destinations7iceberg6config28default_max_batch_size_bytes
FN:159,_RNvXNtNtCs4cZhgjLB9Y4_16etl_destinations7iceberg6configNtB2_12WriterConfigNtNtCsaNl6UpbT7bw_4core7default7Default7default
FN:170,_RNvXs_NtNtCs4cZhgjLB9Y4_16etl_destinations7iceberg6configNtB4_9CdcConfigNtNtCsaNl6UpbT7bw_4core7default7Default7default
FN:273,_RNvMs1_NtNtCs4cZhgjLB9Y4_16etl_destinations7iceberg6configNtB5_13IcebergConfig8aws_glue
FN:234,_RNvXs0_NtNtCs4cZhgjLB9Y4_16etl_destinations7iceberg6configNtB5_17PartitionStrategyNtNtCsaNl6UpbT7bw_4core7default7Default7default
FN:369,_RNvNtNtNtCs4cZhgjLB9Y4_16etl_destinations7iceberg6config5testss_23test_default_cdc_config
FN:407,_RNvNtNtNtCs4cZhgjLB9Y4_16etl_destinations7iceberg6config5testss_25test_aws_optimized_writer
FN:378,_RNvNtNtNtCs4cZhgjLB9Y4_16etl_destinations7iceberg6config5testss_25test_aws_s3_tables_config
FN:331,_RNvNtNtNtCs4cZhgjLB9Y4_16etl_destinations7iceberg6config5testss_25test_config_serialization
FN:360,_RNvNtNtNtCs4cZhgjLB9Y4_16etl_destinations7iceberg6config5testss_26test_default_writer_config
FNDA:1,_RNvMs1_NtNtCs4cZhgjLB9Y4_16etl_destinations7iceberg6configNtB5_13IcebergConfig13aws_s3_tables
FNDA:2,_RNvMs2_NtNtCs4cZhgjLB9Y4_16etl_destinations7iceberg6configNtB5_12WriterConfig13aws_optimized
FNDA:4,_RNvNtNtCs4cZhgjLB9Y4_16etl_destinations7iceberg6config18default_batch_size
FNDA:3,_RNvNtNtCs4cZhgjLB9Y4_16etl_destinations7iceberg6config21default_track_changes
FNDA:3,_RNvNtNtCs4cZhgjLB9Y4_16etl_destinations7iceberg6config22default_add_lsn_column
FNDA:3,_RNvNtNtCs4cZhgjLB9Y4_16etl_destinations7iceberg6config22default_enable_deletes
FNDA:4,_RNvNtNtCs4cZhgjLB9Y4_16etl_destinations7iceberg6config22default_enable_metrics
FNDA:4,_RNvNtNtCs4cZhgjLB9Y4_16etl_destinations7iceberg6config26default_max_commit_time_ms
FNDA:3,_RNvNtNtCs4cZhgjLB9Y4_16etl_destinations7iceberg6config28default_add_timestamp_column
FNDA:4,_RNvNtNtCs4cZhgjLB9Y4_16etl_destinations7iceberg6config28default_max_batch_size_bytes
FNDA:4,_RNvXNtNtCs4cZhgjLB9Y4_16etl_destinations7iceberg6configNtB2_12WriterConfigNtNtCsaNl6UpbT7bw_4core7default7Default7default
FNDA:3,_RNvXs_NtNtCs4cZhgjLB9Y4_16etl_destinations7iceberg6configNtB4_9CdcConfigNtNtCsaNl6UpbT7bw_4core7default7Default7default
FNDA:0,_RNvMs1_NtNtCs4cZhgjLB9Y4_16etl_destinations7iceberg6configNtB5_13IcebergConfig8aws_glue
FNDA:0,_RNvXs0_NtNtCs4cZhgjLB9Y4_16etl_destinations7iceberg6configNtB5_17PartitionStrategyNtNtCsaNl6UpbT7bw_4core7default7Default7default
FNDA:1,_RNvNtNtNtCs4cZhgjLB9Y4_16etl_destinations7iceberg6config5testss_23test_default_cdc_config
FNDA:1,_RNvNtNtNtCs4cZhgjLB9Y4_16etl_destinations7iceberg6config5testss_25test_aws_optimized_writer
FNDA:1,_RNvNtNtNtCs4cZhgjLB9Y4_16etl_destinations7iceberg6config5testss_25test_aws_s3_tables_config
FNDA:1,_RNvNtNtNtCs4cZhgjLB9Y4_16etl_destinations7iceberg6config5testss_25test_config_serialization
FNDA:1,_RNvNtNtNtCs4cZhgjLB9Y4_16etl_destinations7iceberg6config5testss_26test_default_writer_config
FNF:19
FNH:17
DA:159,4
DA:160,4
DA:161,4
DA:162,4
DA:163,4
DA:164,4
DA:165,4
DA:166,4
DA:170,3
DA:171,3
DA:172,3
DA:173,3
DA:174,3
DA:175,3
DA:176,3
DA:177,3
DA:181,4
DA:182,4
DA:183,4
DA:185,4
DA:186,4
DA:187,4
DA:189,4
DA:190,4
DA:191,4
DA:193,4
DA:194,4
DA:195,4
DA:197,3
DA:198,3
DA:199,3
DA:201,3
DA:202,3
DA:203,3
DA:205,3
DA:206,3
DA:207,3
DA:209,3
DA:210,3
DA:211,3
DA:234,0
DA:235,0
DA:236,0
DA:244,1
DA:245,1
DA:246,1
DA:247,1
DA:248,1
DA:249,1
DA:250,1
DA:251,1
DA:252,1
DA:253,1
DA:254,1
DA:255,1
DA:256,1
DA:257,1
DA:258,1
DA:259,1
DA:260,1
DA:261,1
DA:262,1
DA:263,1
DA:264,1
DA:265,1
DA:266,1
DA:267,1
DA:273,0
DA:274,0
DA:275,0
DA:276,0
DA:277,0
DA:278,0
DA:279,0
DA:280,0
DA:281,0
DA:282,0
DA:283,0
DA:284,0
DA:285,0
DA:286,0
DA:287,0
DA:288,0
DA:289,0
DA:290,0
DA:291,0
DA:292,0
DA:293,0
DA:294,0
DA:295,0
DA:296,0
DA:303,2
DA:304,2
DA:305,2
DA:306,2
DA:307,2
DA:308,2
DA:309,2
DA:310,2
DA:331,1
DA:332,1
DA:333,1
DA:334,1
DA:335,1
DA:336,1
DA:337,1
DA:338,1
DA:339,1
DA:340,1
DA:341,1
DA:342,1
DA:343,1
DA:344,1
DA:345,1
DA:346,1
DA:347,1
DA:348,1
DA:350,1
DA:351,1
DA:353,1
DA:354,1
DA:355,0
DA:357,1
DA:360,1
DA:361,1
DA:362,1
DA:363,1
DA:364,1
DA:365,1
DA:366,1
DA:369,1
DA:370,1
DA:371,1
DA:372,1
DA:373,1
DA:374,1
DA:375,1
DA:378,1
DA:379,1
DA:380,1
DA:381,1
DA:382,1
DA:383,1
DA:386,1
DA:387,1
DA:388,1
DA:389,1
DA:391,0
DA:394,1
DA:395,1
DA:396,1
DA:397,1
DA:399,0
DA:402,1
DA:403,1
DA:404,1
DA:407,1
DA:408,1
DA:409,1
DA:410,1
DA:411,1
DA:412,1
DA:413,1
BRF:0
BRH:0
LF:163
LH:133
end_of_record
SF:/Users/oliverrice/Documents/supabase/etl/etl-destinations/src/iceberg/core.rs
FN:406,_RINvMs1_NtNtCs4cZhgjLB9Y4_16etl_destinations7iceberg4coreINtB6_18IcebergDestinationpE27add_to_created_tables_cachepEBa_
FN:417,_RINvMs1_NtNtCs4cZhgjLB9Y4_16etl_destinations7iceberg4coreINtB6_18IcebergDestinationpE32remove_from_created_tables_cachepEBa_
FN:263,_RNCNCNvMs1_NtNtCs4cZhgjLB9Y4_16etl_destinations7iceberg4coreINtB9_18IcebergDestinationpE27prepare_table_for_streaming00Bd_
FN:276,_RNCNCNvMs1_NtNtCs4cZhgjLB9Y4_16etl_destinations7iceberg4coreINtB9_18IcebergDestinationpE27prepare_table_for_streaming0s_0Bd_
FN:439,_RNCNCNvXININtNtCs4cZhgjLB9Y4_16etl_destinations7iceberg4cores2_0pEINtB9_18IcebergDestinationpENtNtNtCsgbBGXPKODMY_3etl11destination4base11Destination14truncate_table00Bd_
FN:454,_RNCNCNvXININtNtCs4cZhgjLB9Y4_16etl_destinations7iceberg4cores2_0pEINtB9_18IcebergDestinationpENtNtNtCsgbBGXPKODMY_3etl11destination4base11Destination14truncate_table0s_0Bd_
FN:307,_RNCNvMs1_NtNtCs4cZhgjLB9Y4_16etl_destinations7iceberg4coreINtB7_18IcebergDestinationpE17stream_table_rows0Bb_
FN:374,_RNCNvMs1_NtNtCs4cZhgjLB9Y4_16etl_destinations7iceberg4coreINtB7_18IcebergDestinationpE25stream_rows_with_fallback0Bb_
FN:256,_RNCNvMs1_NtNtCs4cZhgjLB9Y4_16etl_destinations7iceberg4coreINtB7_18IcebergDestinationpE27prepare_table_for_streaming0Bb_
FN:230,_RNCNvMs1_NtNtCs4cZhgjLB9Y4_16etl_destinations7iceberg4coreINtB7_18IcebergDestinationpE3new0Bb_
FN:496,_RNCNvXININtNtCs4cZhgjLB9Y4_16etl_destinations7iceberg4cores2_0pEINtB7_18IcebergDestinationpENtNtNtCsgbBGXPKODMY_3etl11destination4base11Destination12write_events0Bb_
FN:429,_RNCNvXININtNtCs4cZhgjLB9Y4_16etl_destinations7iceberg4cores2_0pEINtB7_18IcebergDestinationpENtNtNtCsgbBGXPKODMY_3etl11destination4base11Destination14truncate_table0Bb_
FN:480,_RNCNvXININtNtCs4cZhgjLB9Y4_16etl_destinations7iceberg4cores2_0pEINtB7_18IcebergDestinationpENtNtNtCsgbBGXPKODMY_3etl11destination4base11Destination16write_table_rows0Bb_
FN:136,_RNCNvXs_NtNtCs4cZhgjLB9Y4_16etl_destinations7iceberg4coreNtB6_23SequencedIcebergTableIdNtNtNtCsaNl6UpbT7bw_4core3str6traits7FromStr8from_str0Ba_
FN:94,_RNvMNtNtCs4cZhgjLB9Y4_16etl_destinations7iceberg4coreNtB2_23SequencedIcebergTableId3new
FN:99,_RNvMNtNtCs4cZhgjLB9Y4_16etl_destinations7iceberg4coreNtB2_23SequencedIcebergTableId4next
FN:301,_RNvMs1_NtNtCs4cZhgjLB9Y4_16etl_destinations7iceberg4coreINtB5_18IcebergDestinationpE17stream_table_rowsB9_
FN:369,_RNvMs1_NtNtCs4cZhgjLB9Y4_16etl_destinations7iceberg4coreINtB5_18IcebergDestinationpE25stream_rows_with_fallbackB9_
FN:253,_RNvMs1_NtNtCs4cZhgjLB9Y4_16etl_destinations7iceberg4coreINtB5_18IcebergDestinationpE27prepare_table_for_streamingB9_
FN:224,_RNvMs1_NtNtCs4cZhgjLB9Y4_16etl_destinations7iceberg4coreINtB5_18IcebergDestinationpE3newB9_
FN:60,_RNvNtNtCs4cZhgjLB9Y4_16etl_destinations7iceberg4core24generate_sequence_number
FN:70,_RNvNtNtCs4cZhgjLB9Y4_16etl_destinations7iceberg4core30table_name_to_iceberg_table_id
FN:496,_RNvXININtNtCs4cZhgjLB9Y4_16etl_destinations7iceberg4cores2_0pEINtB5_18IcebergDestinationpENtNtNtCsgbBGXPKODMY_3etl11destination4base11Destination12write_eventsB9_
FN:429,_RNvXININtNtCs4cZhgjLB9Y4_16etl_destinations7iceberg4cores2_0pEINtB5_18IcebergDestinationpENtNtNtCsgbBGXPKODMY_3etl11destination4base11Destination14truncate_tableB9_
FN:480,_RNvXININtNtCs4cZhgjLB9Y4_16etl_destinations7iceberg4cores2_0pEINtB5_18IcebergDestinationpENtNtNtCsgbBGXPKODMY_3etl11destination4base11Destination16write_table_rowsB9_
FN:165,_RNvXs0_NtNtCs4cZhgjLB9Y4_16etl_destinations7iceberg4coreNtB5_23SequencedIcebergTableIdNtNtCsaNl6UpbT7bw_4core3fmt7Display3fmt
FN:109,_RNvXs_NtNtCs4cZhgjLB9Y4_16etl_destinations7iceberg4coreNtB4_23SequencedIcebergTableIdNtNtNtCsaNl6UpbT7bw_4core3str6traits7FromStr8from_str
FNDA:0,_RINvMs1_NtNtCs4cZhgjLB9Y4_16etl_destinations7iceberg4coreINtB6_18IcebergDestinationpE27add_to_created_tables_cachepEBa_
FNDA:0,_RINvMs1_NtNtCs4cZhgjLB9Y4_16etl_destinations7iceberg4coreINtB6_18IcebergDestinationpE32remove_from_created_tables_cachepEBa_
FNDA:0,_RNCNCNvMs1_NtNtCs4cZhgjLB9Y4_16etl_destinations7iceberg4coreINtB9_18IcebergDestinationpE27prepare_table_for_streaming00Bd_
FNDA:0,_RNCNCNvMs1_NtNtCs4cZhgjLB9Y4_16etl_destinations7iceberg4coreINtB9_18IcebergDestinationpE27prepare_table_for_streaming0s_0Bd_
FNDA:0,_RNCNCNvXININtNtCs4cZhgjLB9Y4_16etl_destinations7iceberg4cores2_0pEINtB9_18IcebergDestinationpENtNtNtCsgbBGXPKODMY_3etl11destination4base11Destination14truncate_table00Bd_
FNDA:0,_RNCNCNvXININtNtCs4cZhgjLB9Y4_16etl_destinations7iceberg4cores2_0pEINtB9_18IcebergDestinationpENtNtNtCsgbBGXPKODMY_3etl11destination4base11Destination14truncate_table0s_0Bd_
FNDA:0,_RNCNvMs1_NtNtCs4cZhgjLB9Y4_16etl_destinations7iceberg4coreINtB7_18IcebergDestinationpE17stream_table_rows0Bb_
FNDA:0,_RNCNvMs1_NtNtCs4cZhgjLB9Y4_16etl_destinations7iceberg4coreINtB7_18IcebergDestinationpE25stream_rows_with_fallback0Bb_
FNDA:0,_RNCNvMs1_NtNtCs4cZhgjLB9Y4_16etl_destinations7iceberg4coreINtB7_18IcebergDestinationpE27prepare_table_for_streaming0Bb_
FNDA:0,_RNCNvMs1_NtNtCs4cZhgjLB9Y4_16etl_destinations7iceberg4coreINtB7_18IcebergDestinationpE3new0Bb_
FNDA:0,_RNCNvXININtNtCs4cZhgjLB9Y4_16etl_destinations7iceberg4cores2_0pEINtB7_18IcebergDestinationpENtNtNtCsgbBGXPKODMY_3etl11destination4base11Destination12write_events0Bb_
FNDA:0,_RNCNvXININtNtCs4cZhgjLB9Y4_16etl_destinations7iceberg4cores2_0pEINtB7_18IcebergDestinationpENtNtNtCsgbBGXPKODMY_3etl11destination4base11Destination14truncate_table0Bb_
FNDA:0,_RNCNvXININtNtCs4cZhgjLB9Y4_16etl_destinations7iceberg4cores2_0pEINtB7_18IcebergDestinationpENtNtNtCsgbBGXPKODMY_3etl11destination4base11Destination16write_table_rows0Bb_
FNDA:0,_RNCNvXs_NtNtCs4cZhgjLB9Y4_16etl_destinations7iceberg4coreNtB6_23SequencedIcebergTableIdNtNtNtCsaNl6UpbT7bw_4core3str6traits7FromStr8from_str0Ba_
FNDA:0,_RNvMNtNtCs4cZhgjLB9Y4_16etl_destinations7iceberg4coreNtB2_23SequencedIcebergTableId3new
FNDA:0,_RNvMNtNtCs4cZhgjLB9Y4_16etl_destinations7iceberg4coreNtB2_23SequencedIcebergTableId4next
FNDA:0,_RNvMs1_NtNtCs4cZhgjLB9Y4_16etl_destinations7iceberg4coreINtB5_18IcebergDestinationpE17stream_table_rowsB9_
FNDA:0,_RNvMs1_NtNtCs4cZhgjLB9Y4_16etl_destinations7iceberg4coreINtB5_18IcebergDestinationpE25stream_rows_with_fallbackB9_
FNDA:0,_RNvMs1_NtNtCs4cZhgjLB9Y4_16etl_destinations7iceberg4coreINtB5_18IcebergDestinationpE27prepare_table_for_streamingB9_
FNDA:0,_RNvMs1_NtNtCs4cZhgjLB9Y4_16etl_destinations7iceberg4coreINtB5_18IcebergDestinationpE3newB9_
FNDA:0,_RNvNtNtCs4cZhgjLB9Y4_16etl_destinations7iceberg4core24generate_sequence_number
FNDA:0,_RNvNtNtCs4cZhgjLB9Y4_16etl_destinations7iceberg4core30table_name_to_iceberg_table_id
FNDA:0,_RNvXININtNtCs4cZhgjLB9Y4_16etl_destinations7iceberg4cores2_0pEINtB5_18IcebergDestinationpENtNtNtCsgbBGXPKODMY_3etl11destination4base11Destination12write_eventsB9_
FNDA:0,_RNvXININtNtCs4cZhgjLB9Y4_16etl_destinations7iceberg4cores2_0pEINtB5_18IcebergDestinationpENtNtNtCsgbBGXPKODMY_3etl11destination4base11Destination14truncate_tableB9_
FNDA:0,_RNvXININtNtCs4cZhgjLB9Y4_16etl_destinations7iceberg4cores2_0pEINtB5_18IcebergDestinationpENtNtNtCsgbBGXPKODMY_3etl11destination4base11Destination16write_table_rowsB9_
FNDA:0,_RNvXs0_NtNtCs4cZhgjLB9Y4_16etl_destinations7iceberg4coreNtB5_23SequencedIcebergTableIdNtNtCsaNl6UpbT7bw_4core3fmt7Display3fmt
FNDA:0,_RNvXs_NtNtCs4cZhgjLB9Y4_16etl_destinations7iceberg4coreNtB4_23SequencedIcebergTableIdNtNtNtCsaNl6UpbT7bw_4core3str6traits7FromStr8from_str
FNF:27
FNH:0
DA:60,0
DA:61,0
DA:62,0
DA:64,0
DA:65,0
DA:70,0
DA:71,0
DA:72,0
DA:73,0
DA:74,0
DA:75,0
DA:76,0
DA:77,0
DA:78,0
DA:80,0
DA:81,0
DA:94,0
DA:95,0
DA:96,0
DA:99,0
DA:100,0
DA:101,0
DA:109,0
DA:110,0
DA:111,0
DA:112,0
DA:114,0
DA:115,0
DA:116,0
DA:118,0
DA:119,0
DA:122,0
DA:124,0
DA:125,0
DA:126,0
DA:128,0
DA:129,0
DA:132,0
DA:134,0
DA:135,0
DA:136,0
DA:137,0
DA:138,0
DA:140,0
DA:141,0
DA:145,0
DA:147,0
DA:148,0
DA:149,0
DA:150,0
DA:152,0
DA:153,0
DA:155,0
DA:156,0
DA:160,0
DA:165,0
DA:166,0
DA:167,0
DA:224,0
DA:225,0
DA:226,0
DA:227,0
DA:228,0
DA:229,0
DA:230,0
DA:231,0
DA:232,0
DA:233,0
DA:234,0
DA:235,0
DA:236,0
DA:238,0
DA:239,0
DA:240,0
DA:241,0
DA:242,0
DA:243,0
DA:245,0
DA:246,0
DA:247,0
DA:248,0
DA:253,0
DA:254,0
DA:255,0
DA:256,0
DA:259,0
DA:260,0
DA:261,0
DA:262,0
DA:263,0
DA:264,0
DA:265,0
DA:267,0
DA:269,0
DA:271,0
DA:272,0
DA:273,0
DA:274,0
DA:275,0
DA:276,0
DA:279,0
DA:280,0
DA:281,0
DA:284,0
DA:285,0
DA:286,0
DA:287,0
DA:290,0
DA:291,0
DA:292,0
DA:293,0
DA:295,0
DA:296,0
DA:301,0
DA:302,0
DA:303,0
DA:304,0
DA:305,0
DA:306,0
DA:307,0
DA:308,0
DA:311,0
DA:314,0
DA:315,0
DA:316,0
DA:317,0
DA:318,0
DA:319,0
DA:320,0
DA:322,0
DA:328,0
DA:330,0
DA:333,0
DA:334,0
DA:338,0
DA:339,0
DA:341,0
DA:342,0
DA:343,0
DA:346,0
DA:347,0
DA:348,0
DA:349,0
DA:350,0
DA:351,0
DA:354,0
DA:358,0
DA:361,0
DA:362,0
DA:369,0
DA:370,0
DA:371,0
DA:372,0
DA:373,0
DA:374,0
DA:376,0
DA:377,0
DA:378,0
DA:379,0
DA:381,0
DA:382,0
DA:383,0
DA:386,0
DA:387,0
DA:391,0
DA:394,0
DA:397,0
DA:398,0
DA:399,0
DA:400,0
DA:403,0
DA:406,0
DA:407,0
DA:408,0
DA:409,0
DA:410,0
DA:411,0
DA:412,0
DA:413,0
DA:414,0
DA:417,0
DA:418,0
DA:419,0
DA:420,0
DA:421,0
DA:422,0
DA:429,0
DA:430,0
DA:432,0
DA:435,0
DA:436,0
DA:437,0
DA:438,0
DA:439,0
DA:440,0
DA:441,0
DA:443,0
DA:445,0
DA:447,0
DA:450,0
DA:451,0
DA:452,0
DA:453,0
DA:454,0
DA:456,0
DA:459,0
DA:460,0
DA:461,0
DA:462,0
DA:465,0
DA:466,0
DA:469,0
DA:471,0
DA:474,0
DA:477,0
DA:478,0
DA:480,0
DA:481,0
DA:483,0
DA:484,0
DA:487,0
DA:488,0
DA:489,0
DA:490,0
DA:491,0
DA:492,0
DA:493,0
DA:494,0
DA:496,0
DA:497,0
DA:499,0
DA:500,0
DA:501,0
DA:502,0
DA:503,0
DA:504,0
DA:505,0
DA:506,0
DA:507,0
DA:508,0
DA:510,0
DA:511,0
DA:512,0
DA:513,0
DA:514,0
DA:515,0
DA:516,0
DA:517,0
DA:519,0
DA:521,0
DA:522,0
DA:523,0
DA:524,0
DA:525,0
DA:526,0
DA:527,0
DA:528,0
DA:530,0
DA:533,0
DA:535,0
DA:537,0
DA:538,0
DA:543,0
DA:547,0
DA:551,0
DA:556,0
DA:557,0
BRF:0
BRH:0
LF:282
LH:0
end_of_record
SF:/Users/oliverrice/Documents/supabase/etl/etl-destinations/src/iceberg/encoding.rs
FN:396,_RNvNtNtNtCs4cZhgjLB9Y4_16etl_destinations7iceberg8encoding5tests16create_test_rows
FN:387,_RNvNtNtNtCs4cZhgjLB9Y4_16etl_destinations7iceberg8encoding5tests18create_test_schema
FN:460,_RNvNtNtNtCs4cZhgjLB9Y4_16etl_destinations7iceberg8encoding5testss_15test_batch_rows
FN:432,_RNvNtNtNtCs4cZhgjLB9Y4_16etl_destinations7iceberg8encoding5testss_15test_empty_rows
FN:444,_RNvNtNtNtCs4cZhgjLB9Y4_16etl_destinations7iceberg8encoding5testss_22test_estimate_row_size
FN:490,_RNvNtNtNtCs4cZhgjLB9Y4_16etl_destinations7iceberg8encoding5testss_23test_build_string_array
FN:507,_RNvNtNtNtCs4cZhgjLB9Y4_16etl_destinations7iceberg8encoding5testss_25test_batch_rows_zero_copy
FN:482,_RNvNtNtNtCs4cZhgjLB9Y4_16etl_destinations7iceberg8encoding5testss_25test_cell_size_estimation
FN:418,_RNvNtNtNtCs4cZhgjLB9Y4_16etl_destinations7iceberg8encoding5testss_25test_rows_to_record_batch
FN:24,_RNvNtNtCs4cZhgjLB9Y4_16etl_destinations7iceberg8encoding10batch_rows
FN:156,_RNvNtNtCs4cZhgjLB9Y4_16etl_destinations7iceberg8encoding17build_int16_array
FN:172,_RNvNtNtCs4cZhgjLB9Y4_16etl_destinations7iceberg8encoding17build_int32_array
FN:188,_RNvNtNtCs4cZhgjLB9Y4_16etl_destinations7iceberg8encoding17build_int64_array
FN:336,_RNvNtNtCs4cZhgjLB9Y4_16etl_destinations7iceberg8encoding17estimate_row_size
FN:272,_RNvNtNtCs4cZhgjLB9Y4_16etl_destinations7iceberg8encoding18build_binary_array
FN:288,_RNvNtNtCs4cZhgjLB9Y4_16etl_destinations7iceberg8encoding18build_date32_array
FN:256,_RNvNtNtCs4cZhgjLB9Y4_16etl_destinations7iceberg8encoding18build_string_array
FN:304,_RNvNtNtCs4cZhgjLB9Y4_16etl_destinations7iceberg8encoding18build_time64_array
FN:204,_RNvNtNtCs4cZhgjLB9Y4_16etl_destinations7iceberg8encoding18build_uint32_array
FN:347,_RNvNtNtCs4cZhgjLB9Y4_16etl_destinations7iceberg8encoding18estimate_cell_size
FN:140,_RNvNtNtCs4cZhgjLB9Y4_16etl_destinations7iceberg8encoding19build_boolean_array
FN:224,_RNvNtNtCs4cZhgjLB9Y4_16etl_destinations7iceberg8encoding19build_float32_array
FN:240,_RNvNtNtCs4cZhgjLB9Y4_16etl_destinations7iceberg8encoding19build_float64_array
FN:71,_RNvNtNtCs4cZhgjLB9Y4_16etl_destinations7iceberg8encoding20rows_to_record_batch
FN:111,_RNvNtNtCs4cZhgjLB9Y4_16etl_destinations7iceberg8encoding21build_array_for_field
FN:320,_RNvNtNtCs4cZhgjLB9Y4_16etl_destinations7iceberg8encoding21build_timestamp_array
FN:371,_RNCNCNvNtNtCs4cZhgjLB9Y4_16etl_destinations7iceberg8encoding18estimate_cell_size00B9_
FN:371,_RNCNvNtNtCs4cZhgjLB9Y4_16etl_destinations7iceberg8encoding18estimate_cell_size0B7_
FN:96,_RNCNvNtNtCs4cZhgjLB9Y4_16etl_destinations7iceberg8encoding20rows_to_record_batch0B7_
FNDA:1,_RNvNtNtNtCs4cZhgjLB9Y4_16etl_destinations7iceberg8encoding5tests16create_test_rows
FNDA:2,_RNvNtNtNtCs4cZhgjLB9Y4_16etl_destinations7iceberg8encoding5tests18create_test_schema
FNDA:1,_RNvNtNtNtCs4cZhgjLB9Y4_16etl_destinations7iceberg8encoding5testss_15test_batch_rows
FNDA:1,_RNvNtNtNtCs4cZhgjLB9Y4_16etl_destinations7iceberg8encoding5testss_15test_empty_rows
FNDA:1,_RNvNtNtNtCs4cZhgjLB9Y4_16etl_destinations7iceberg8encoding5testss_22test_estimate_row_size
FNDA:1,_RNvNtNtNtCs4cZhgjLB9Y4_16etl_destinations7iceberg8encoding5testss_23test_build_string_array
FNDA:1,_RNvNtNtNtCs4cZhgjLB9Y4_16etl_destinations7iceberg8encoding5testss_25test_batch_rows_zero_copy
FNDA:1,_RNvNtNtNtCs4cZhgjLB9Y4_16etl_destinations7iceberg8encoding5testss_25test_cell_size_estimation
FNDA:1,_RNvNtNtNtCs4cZhgjLB9Y4_16etl_destinations7iceberg8encoding5testss_25test_rows_to_record_batch
FNDA:2,_RNvNtNtCs4cZhgjLB9Y4_16etl_destinations7iceberg8encoding10batch_rows
FNDA:0,_RNvNtNtCs4cZhgjLB9Y4_16etl_destinations7iceberg8encoding17build_int16_array
FNDA:0,_RNvNtNtCs4cZhgjLB9Y4_16etl_destinations7iceberg8encoding17build_int32_array
FNDA:1,_RNvNtNtCs4cZhgjLB9Y4_16etl_destinations7iceberg8encoding17build_int64_array
FNDA:7,_RNvNtNtCs4cZhgjLB9Y4_16etl_destinations7iceberg8encoding17estimate_row_size
FNDA:0,_RNvNtNtCs4cZhgjLB9Y4_16etl_destinations7iceberg8encoding18build_binary_array
FNDA:0,_RNvNtNtCs4cZhgjLB9Y4_16etl_destinations7iceberg8encoding18build_date32_array
FNDA:2,_RNvNtNtCs4cZhgjLB9Y4_16etl_destinations7iceberg8encoding18build_string_array
FNDA:0,_RNvNtNtCs4cZhgjLB9Y4_16etl_destinations7iceberg8encoding18build_time64_array
FNDA:0,_RNvNtNtCs4cZhgjLB9Y4_16etl_destinations7iceberg8encoding18build_uint32_array
FNDA:13,_RNvNtNtCs4cZhgjLB9Y4_16etl_destinations7iceberg8encoding18estimate_cell_size
FNDA:1,_RNvNtNtCs4cZhgjLB9Y4_16etl_destinations7iceberg8encoding19build_boolean_array
FNDA:0,_RNvNtNtCs4cZhgjLB9Y4_16etl_destinations7iceberg8encoding19build_float32_array
FNDA:1,_RNvNtNtCs4cZhgjLB9Y4_16etl_destinations7iceberg8encoding19build_float64_array
FNDA:2,_RNvNtNtCs4cZhgjLB9Y4_16etl_destinations7iceberg8encoding20rows_to_record_batch
FNDA:4,_RNvNtNtCs4cZhgjLB9Y4_16etl_destinations7iceberg8encoding21build_array_for_field
FNDA:0,_RNvNtNtCs4cZhgjLB9Y4_16etl_destinations7iceberg8encoding21build_timestamp_array
FNDA:0,_RNCNCNvNtNtCs4cZhgjLB9Y4_16etl_destinations7iceberg8encoding18estimate_cell_size00B9_
FNDA:0,_RNCNvNtNtCs4cZhgjLB9Y4_16etl_destinations7iceberg8encoding18estimate_cell_size0B7_
FNDA:0,_RNCNvNtNtCs4cZhgjLB9Y4_16etl_destinations7iceberg8encoding20rows_to_record_batch0B7_
FNF:29
FNH:18
DA:24,2
DA:25,2
DA:26,2
DA:27,2
DA:28,2
DA:29,2
DA:30,0
DA:31,2
DA:33,2
DA:34,2
DA:35,2
DA:36,2
DA:38,6
DA:39,6
DA:42,6
DA:43,4
DA:44,2
DA:45,2
DA:46,2
DA:47,2
DA:48,2
DA:49,2
DA:50,4
DA:52,6
DA:53,6
DA:57,2
DA:58,2
DA:59,2
DA:61,2
DA:62,0
DA:63,0
DA:64,0
DA:67,2
DA:68,2
DA:71,2
DA:72,2
DA:73,2
DA:74,2
DA:75,2
DA:76,2
DA:77,1
DA:78,1
DA:80,1
DA:81,0
DA:82,0
DA:83,0
DA:86,1
DA:89,4
DA:90,4
DA:91,4
DA:94,1
DA:95,1
DA:96,0
DA:98,0
DA:99,0
DA:101,1
DA:102,0
DA:103,0
DA:104,0
DA:107,1
DA:108,2
DA:111,4
DA:112,4
DA:113,4
DA:114,4
DA:115,4
DA:116,0
DA:117,1
DA:118,0
DA:119,0
DA:120,1
DA:121,0
DA:122,0
DA:123,1
DA:124,1
DA:125,0
DA:126,0
DA:127,0
DA:128,0
DA:130,0
DA:132,0
DA:134,0
DA:137,4
DA:140,1
DA:141,1
DA:143,3
DA:144,2
DA:145,2
DA:146,2
DA:147,2
DA:148,0
DA:149,0
DA:152,1
DA:153,1
DA:156,0
DA:157,0
DA:159,0
DA:160,0
DA:161,0
DA:162,0
DA:163,0
DA:164,0
DA:165,0
DA:168,0
DA:169,0
DA:172,0
DA:173,0
DA:175,0
DA:176,0
DA:177,0
DA:178,0
DA:179,0
DA:180,0
DA:181,0
DA:184,0
DA:185,0
DA:188,1
DA:189,1
DA:191,3
DA:192,2
DA:193,2
DA:194,2
DA:195,2
DA:196,0
DA:197,0
DA:200,1
DA:201,1
DA:204,0
DA:205,0
DA:207,0
DA:208,0
DA:209,0
DA:210,0
DA:211,0
DA:212,0
DA:214,0
DA:215,0
DA:216,0
DA:217,0
DA:220,0
DA:221,0
DA:224,0
DA:225,0
DA:227,0
DA:228,0
DA:229,0
DA:230,0
DA:231,0
DA:232,0
DA:233,0
DA:236,0
DA:237,0
DA:240,1
DA:241,1
DA:243,3
DA:244,2
DA:245,2
DA:246,2
DA:247,2
DA:248,0
DA:249,0
DA:252,1
DA:253,1
DA:256,2
DA:257,2
DA:259,6
DA:260,4
DA:261,4
DA:262,4
DA:263,4
DA:264,0
DA:265,0
DA:268,2
DA:269,2
DA:272,0
DA:273,0
DA:275,0
DA:276,0
DA:277,0
DA:278,0
DA:279,0
DA:280,0
DA:281,0
DA:284,0
DA:285,0
DA:288,0
DA:289,0
DA:291,0
DA:292,0
DA:293,0
DA:294,0
DA:295,0
DA:296,0
DA:297,0
DA:300,0
DA:301,0
DA:304,0
DA:305,0
DA:307,0
DA:308,0
DA:309,0
DA:310,0
DA:311,0
DA:312,0
DA:313,0
DA:316,0
DA:317,0
DA:320,0
DA:321,0
DA:323,0
DA:324,0
DA:325,0
DA:326,0
DA:327,0
DA:328,0
DA:329,0
DA:332,0
DA:333,0
DA:336,7
DA:337,7
DA:339,16
DA:340,9
DA:341,9
DA:343,7
DA:344,7
DA:347,13
DA:348,13
DA:349,1
DA:350,2
DA:351,2
DA:352,0
DA:353,0
DA:354,0
DA:355,8
DA:356,0
DA:357,0
DA:358,0
DA:359,0
DA:360,0
DA:361,0
DA:362,0
DA:363,0
DA:364,0
DA:365,0
DA:366,0
DA:368,0
DA:369,0
DA:370,0
DA:371,0
DA:373,0
DA:377,13
DA:387,2
DA:388,2
DA:389,2
DA:390,2
DA:391,2
DA:392,2
DA:394,2
DA:396,1
DA:397,1
DA:398,1
DA:399,1
DA:400,1
DA:401,1
DA:402,1
DA:403,1
DA:404,1
DA:405,1
DA:406,1
DA:407,1
DA:408,1
DA:409,1
DA:410,1
DA:411,1
DA:412,1
DA:413,1
DA:415,1
DA:418,1
DA:419,1
DA:420,1
DA:421,1
DA:423,1
DA:425,1
DA:426,1
DA:427,1
DA:428,1
DA:429,1
DA:432,1
DA:433,1
DA:434,1
DA:435,1
DA:437,1
DA:439,1
DA:440,1
DA:441,1
DA:444,1
DA:445,1
DA:446,1
DA:447,1
DA:448,1
DA:449,1
DA:450,1
DA:451,1
DA:453,1
DA:454,1
DA:456,1
DA:457,1
DA:460,1
DA:461,1
DA:462,1
DA:463,1
DA:464,1
DA:465,1
DA:466,1
DA:467,1
DA:468,1
DA:469,1
DA:470,1
DA:474,1
DA:476,1
DA:477,1
DA:478,1
DA:479,1
DA:482,1
DA:483,1
DA:484,1
DA:485,1
DA:486,1
DA:487,1
DA:490,1
DA:491,1
DA:492,1
DA:493,1
DA:494,1
DA:495,1
DA:496,1
DA:497,1
DA:500,1
DA:501,1
DA:502,1
DA:503,1
DA:504,1
DA:507,1
DA:508,1
DA:509,1
DA:510,1
DA:511,1
DA:512,1
DA:513,1
DA:514,1
DA:515,1
DA:516,1
DA:517,1
DA:521,1
DA:523,1
DA:524,1
DA:525,1
DA:528,1
DA:529,1
DA:530,1
DA:531,1
BRF:0
BRH:0
LF:363
LH:218
end_of_record
SF:/Users/oliverrice/Documents/supabase/etl/etl-destinations/src/iceberg/mod.rs
FN:88,_RNvNtNtCs4cZhgjLB9Y4_16etl_destinations7iceberg17integration_testss_14test_constants
FNDA:1,_RNvNtNtCs4cZhgjLB9Y4_16etl_destinations7iceberg17integration_testss_14test_constants
FNF:1
FNH:1
DA:88,1
DA:89,1
DA:90,1
DA:91,1
DA:92,1
DA:93,1
BRF:0
BRH:0
LF:6
LH:6
end_of_record
SF:/Users/oliverrice/Documents/supabase/etl/etl-destinations/src/iceberg/schema.rs
FN:512,_RNvNtNtNtCs4cZhgjLB9Y4_16etl_destinations7iceberg6schema5tests14create_pg_type
FN:516,_RNvNtNtNtCs4cZhgjLB9Y4_16etl_destinations7iceberg6schema5tests18create_test_schema
FN:625,_RNvNtNtNtCs4cZhgjLB9Y4_16etl_destinations7iceberg6schema5testss_19test_schema_caching
FN:720,_RNvNtNtNtCs4cZhgjLB9Y4_16etl_destinations7iceberg6schema5testss_24test_array_types_mapping
FN:570,_RNvNtNtNtCs4cZhgjLB9Y4_16etl_destinations7iceberg6schema5testss_29test_postgres_to_arrow_schema
FN:589,_RNvNtNtNtCs4cZhgjLB9Y4_16etl_destinations7iceberg6schema5testss_30test_cell_to_string_conversion
FN:609,_RNvNtNtNtCs4cZhgjLB9Y4_16etl_destinations7iceberg6schema5testss_31test_cell_to_numeric_conversion
FN:556,_RNvNtNtNtCs4cZhgjLB9Y4_16etl_destinations7iceberg6schema5testss_31test_postgres_to_iceberg_schema
FN:690,_RNvNtNtNtCs4cZhgjLB9Y4_16etl_destinations7iceberg6schema5testss_39test_additional_postgres_types_to_arrow
FN:738,_RNvNtNtNtCs4cZhgjLB9Y4_16etl_destinations7iceberg6schema5testss_40test_comprehensive_schema_with_new_types
FN:642,_RNvNtNtNtCs4cZhgjLB9Y4_16etl_destinations7iceberg6schema5testss_41test_additional_postgres_types_to_iceberg
FN:94,_RNCNvMNtNtCs4cZhgjLB9Y4_16etl_destinations7iceberg6schemaNtB4_12SchemaMapper19postgres_to_iceberg0B8_
FN:107,_RNvMNtNtCs4cZhgjLB9Y4_16etl_destinations7iceberg6schemaNtB2_12SchemaMapper16iceberg_to_arrow
FN:381,_RNvXs_NtNtCs4cZhgjLB9Y4_16etl_destinations7iceberg6schemaNtB4_12SchemaMapperNtNtCsaNl6UpbT7bw_4core7default7Default7default
FN:258,_RNvMNtNtCs4cZhgjLB9Y4_16etl_destinations7iceberg6schemaNtB2_12SchemaMapper17create_cdc_fields
FN:279,_RNvMNtNtCs4cZhgjLB9Y4_16etl_destinations7iceberg6schemaNtB2_12SchemaMapper17postgres_to_arrow
FN:68,_RNvMNtNtCs4cZhgjLB9Y4_16etl_destinations7iceberg6schemaNtB2_12SchemaMapper19postgres_to_iceberg
FN:301,_RNvMNtNtCs4cZhgjLB9Y4_16etl_destinations7iceberg6schemaNtB2_12SchemaMapper22postgres_type_to_arrow
FN:241,_RNvMNtNtCs4cZhgjLB9Y4_16etl_destinations7iceberg6schemaNtB2_12SchemaMapper24create_iceberg_list_type
FN:123,_RNvMNtNtCs4cZhgjLB9Y4_16etl_destinations7iceberg6schemaNtB2_12SchemaMapper24postgres_type_to_iceberg
FN:61,_RNvMNtNtCs4cZhgjLB9Y4_16etl_destinations7iceberg6schemaNtB2_12SchemaMapper3new
FN:450,_RNvMs0_NtNtCs4cZhgjLB9Y4_16etl_destinations7iceberg6schemaNtB5_20CellToArrowConverter11cell_to_f32
FN:458,_RNvMs0_NtNtCs4cZhgjLB9Y4_16etl_destinations7iceberg6schemaNtB5_20CellToArrowConverter11cell_to_f64
FN:423,_RNvMs0_NtNtCs4cZhgjLB9Y4_16etl_destinations7iceberg6schemaNtB5_20CellToArrowConverter11cell_to_i16
FN:431,_RNvMs0_NtNtCs4cZhgjLB9Y4_16etl_destinations7iceberg6schemaNtB5_20CellToArrowConverter11cell_to_i32
FN:440,_RNvMs0_NtNtCs4cZhgjLB9Y4_16etl_destinations7iceberg6schemaNtB5_20CellToArrowConverter11cell_to_i64
FN:415,_RNvMs0_NtNtCs4cZhgjLB9Y4_16etl_destinations7iceberg6schemaNtB5_20CellToArrowConverter12cell_to_bool
FN:498,_RNvMs0_NtNtCs4cZhgjLB9Y4_16etl_destinations7iceberg6schemaNtB5_20CellToArrowConverter13cell_to_bytes
FN:467,_RNvMs0_NtNtCs4cZhgjLB9Y4_16etl_destinations7iceberg6schemaNtB5_20CellToArrowConverter14cell_to_date32
FN:391,_RNvMs0_NtNtCs4cZhgjLB9Y4_16etl_destinations7iceberg6schemaNtB5_20CellToArrowConverter14cell_to_string
FN:478,_RNvMs0_NtNtCs4cZhgjLB9Y4_16etl_destinations7iceberg6schemaNtB5_20CellToArrowConverter21cell_to_time64_micros
FN:489,_RNvMs0_NtNtCs4cZhgjLB9Y4_16etl_destinations7iceberg6schemaNtB5_20CellToArrowConverter24cell_to_timestamp_micros
FNDA:35,_RNvNtNtNtCs4cZhgjLB9Y4_16etl_destinations7iceberg6schema5tests14create_pg_type
FNDA:3,_RNvNtNtNtCs4cZhgjLB9Y4_16etl_destinations7iceberg6schema5tests18create_test_schema
FNDA:1,_RNvNtNtNtCs4cZhgjLB9Y4_16etl_destinations7iceberg6schema5testss_19test_schema_caching
FNDA:1,_RNvNtNtNtCs4cZhgjLB9Y4_16etl_destinations7iceberg6schema5testss_24test_array_types_mapping
FNDA:1,_RNvNtNtNtCs4cZhgjLB9Y4_16etl_destinations7iceberg6schema5testss_29test_postgres_to_arrow_schema
FNDA:1,_RNvNtNtNtCs4cZhgjLB9Y4_16etl_destinations7iceberg6schema5testss_30test_cell_to_string_conversion
FNDA:1,_RNvNtNtNtCs4cZhgjLB9Y4_16etl_destinations7iceberg6schema5testss_31test_cell_to_numeric_conversion
FNDA:1,_RNvNtNtNtCs4cZhgjLB9Y4_16etl_destinations7iceberg6schema5testss_31test_postgres_to_iceberg_schema
FNDA:1,_RNvNtNtNtCs4cZhgjLB9Y4_16etl_destinations7iceberg6schema5testss_39test_additional_postgres_types_to_arrow
FNDA:1,_RNvNtNtNtCs4cZhgjLB9Y4_16etl_destinations7iceberg6schema5testss_40test_comprehensive_schema_with_new_types
FNDA:1,_RNvNtNtNtCs4cZhgjLB9Y4_16etl_destinations7iceberg6schema5testss_41test_additional_postgres_types_to_iceberg
FNDA:0,_RNCNvMNtNtCs4cZhgjLB9Y4_16etl_destinations7iceberg6schemaNtB4_12SchemaMapper19postgres_to_iceberg0B8_
FNDA:0,_RNvMNtNtCs4cZhgjLB9Y4_16etl_destinations7iceberg6schemaNtB2_12SchemaMapper16iceberg_to_arrow
FNDA:0,_RNvXs_NtNtCs4cZhgjLB9Y4_16etl_destinations7iceberg6schemaNtB4_12SchemaMapperNtNtCsaNl6UpbT7bw_4core7default7Default7default
FNDA:3,_RNvMNtNtCs4cZhgjLB9Y4_16etl_destinations7iceberg6schemaNtB2_12SchemaMapper17create_cdc_fields
FNDA:3,_RNvMNtNtCs4cZhgjLB9Y4_16etl_destinations7iceberg6schemaNtB2_12SchemaMapper17postgres_to_arrow
FNDA:4,_RNvMNtNtCs4cZhgjLB9Y4_16etl_destinations7iceberg6schemaNtB2_12SchemaMapper19postgres_to_iceberg
FNDA:20,_RNvMNtNtCs4cZhgjLB9Y4_16etl_destinations7iceberg6schemaNtB2_12SchemaMapper22postgres_type_to_arrow
FNDA:3,_RNvMNtNtCs4cZhgjLB9Y4_16etl_destinations7iceberg6schemaNtB2_12SchemaMapper24create_iceberg_list_type
FNDA:29,_RNvMNtNtCs4cZhgjLB9Y4_16etl_destinations7iceberg6schemaNtB2_12SchemaMapper24postgres_type_to_iceberg
FNDA:11,_RNvMNtNtCs4cZhgjLB9Y4_16etl_destinations7iceberg6schemaNtB2_12SchemaMapper3new
FNDA:0,_RNvMs0_NtNtCs4cZhgjLB9Y4_16etl_destinations7iceberg6schemaNtB5_20CellToArrowConverter11cell_to_f32
FNDA:3,_RNvMs0_NtNtCs4cZhgjLB9Y4_16etl_destinations7iceberg6schemaNtB5_20CellToArrowConverter11cell_to_f64
FNDA:0,_RNvMs0_NtNtCs4cZhgjLB9Y4_16etl_destinations7iceberg6schemaNtB5_20CellToArrowConverter11cell_to_i16
FNDA:1,_RNvMs0_NtNtCs4cZhgjLB9Y4_16etl_destinations7iceberg6schemaNtB5_20CellToArrowConverter11cell_to_i32
FNDA:3,_RNvMs0_NtNtCs4cZhgjLB9Y4_16etl_destinations7iceberg6schemaNtB5_20CellToArrowConverter11cell_to_i64
FNDA:2,_RNvMs0_NtNtCs4cZhgjLB9Y4_16etl_destinations7iceberg6schemaNtB5_20CellToArrowConverter12cell_to_bool
FNDA:0,_RNvMs0_NtNtCs4cZhgjLB9Y4_16etl_destinations7iceberg6schemaNtB5_20CellToArrowConverter13cell_to_bytes
FNDA:0,_RNvMs0_NtNtCs4cZhgjLB9Y4_16etl_destinations7iceberg6schemaNtB5_20CellToArrowConverter14cell_to_date32
FNDA:8,_RNvMs0_NtNtCs4cZhgjLB9Y4_16etl_destinations7iceberg6schemaNtB5_20CellToArrowConverter14cell_to_string
FNDA:0,_RNvMs0_NtNtCs4cZhgjLB9Y4_16etl_destinations7iceberg6schemaNtB5_20CellToArrowConverter21cell_to_time64_micros
FNDA:0,_RNvMs0_NtNtCs4cZhgjLB9Y4_16etl_destinations7iceberg6schemaNtB5_20CellToArrowConverter24cell_to_timestamp_micros
FNF:32
FNH:23
DA:61,11
DA:62,11
DA:63,11
DA:64,11
DA:65,11
DA:68,4
DA:69,4
DA:71,4
DA:72,1
DA:73,3
DA:75,3
DA:76,3
DA:79,18
DA:80,15
DA:81,15
DA:82,15
DA:83,15
DA:87,3
DA:88,3
DA:90,3
DA:91,3
DA:92,3
DA:93,3
DA:94,0
DA:96,0
DA:97,0
DA:99,3
DA:100,3
DA:101,4
DA:107,0
DA:109,0
DA:110,0
DA:111,0
DA:115,0
DA:116,0
DA:117,0
DA:119,0
DA:120,0
DA:123,29
DA:124,29
DA:126,2
DA:129,0
DA:130,1
DA:131,3
DA:134,0
DA:135,0
DA:138,0
DA:142,4
DA:146,0
DA:149,0
DA:150,0
DA:151,0
DA:152,3
DA:155,0
DA:158,0
DA:161,2
DA:164,1
DA:167,2
DA:170,3
DA:173,1
DA:176,2
DA:179,2
DA:182,0
DA:183,1
DA:184,0
DA:185,2
DA:188,0
DA:189,0
DA:191,0
DA:192,0
DA:193,0
DA:194,0
DA:195,0
DA:196,0
DA:199,0
DA:202,0
DA:203,0
DA:204,0
DA:206,0
DA:207,0
DA:208,0
DA:210,0
DA:212,0
DA:217,0
DA:218,0
DA:219,0
DA:220,0
DA:222,0
DA:228,0
DA:229,0
DA:230,0
DA:231,0
DA:233,0
DA:237,29
DA:238,29
DA:241,3
DA:246,3
DA:249,3
DA:252,3
DA:254,3
DA:255,3
DA:258,3
DA:259,3
DA:260,3
DA:261,3
DA:263,3
DA:265,3
DA:266,3
DA:268,3
DA:270,3
DA:271,3
DA:273,3
DA:276,3
DA:279,3
DA:280,3
DA:282,17
DA:283,14
DA:284,14
DA:285,14
DA:289,3
DA:290,3
DA:291,3
DA:293,3
DA:297,3
DA:298,3
DA:301,20
DA:302,20
DA:303,2
DA:304,0
DA:305,0
DA:306,3
DA:307,0
DA:308,0
DA:309,0
DA:310,3
DA:311,0
DA:312,0
DA:313,0
DA:314,0
DA:315,1
DA:316,0
DA:317,0
DA:320,2
DA:324,6
DA:328,1
DA:331,0
DA:332,1
DA:333,0
DA:334,1
DA:337,0
DA:338,0
DA:340,0
DA:341,0
DA:342,0
DA:343,0
DA:344,0
DA:347,0
DA:348,0
DA:349,0
DA:353,0
DA:354,0
DA:355,0
DA:356,0
DA:358,0
DA:363,0
DA:367,0
DA:368,0
DA:369,0
DA:370,0
DA:372,0
DA:376,20
DA:377,20
DA:381,0
DA:382,0
DA:383,0
DA:391,8
DA:392,8
DA:393,2
DA:394,1
DA:395,4
DA:396,0
DA:397,1
DA:398,0
DA:399,0
DA:400,0
DA:401,0
DA:402,0
DA:403,0
DA:404,0
DA:405,0
DA:406,0
DA:407,0
DA:408,0
DA:409,0
DA:410,0
DA:412,8
DA:415,2
DA:416,2
DA:417,2
DA:418,0
DA:420,2
DA:423,0
DA:424,0
DA:425,0
DA:426,0
DA:428,0
DA:431,1
DA:432,1
DA:433,1
DA:434,0
DA:435,0
DA:437,1
DA:440,3
DA:441,3
DA:442,2
DA:443,1
DA:444,0
DA:445,0
DA:447,3
DA:450,0
DA:451,0
DA:452,0
DA:453,0
DA:455,0
DA:458,3
DA:459,3
DA:460,1
DA:461,1
DA:462,1
DA:464,3
DA:467,0
DA:468,0
DA:469,0
DA:470,0
DA:471,0
DA:473,0
DA:475,0
DA:478,0
DA:479,0
DA:480,0
DA:481,0
DA:482,0
DA:484,0
DA:486,0
DA:489,0
DA:490,0
DA:491,0
DA:492,0
DA:493,0
DA:495,0
DA:498,0
DA:499,0
DA:500,0
DA:501,0
DA:503,0
DA:512,35
DA:513,35
DA:514,35
DA:516,3
DA:517,3
DA:518,3
DA:519,3
DA:520,3
DA:521,3
DA:522,3
DA:523,3
DA:524,3
DA:525,3
DA:526,3
DA:527,3
DA:528,3
DA:529,3
DA:530,3
DA:531,3
DA:532,3
DA:533,3
DA:534,3
DA:535,3
DA:536,3
DA:537,3
DA:538,3
DA:539,3
DA:540,3
DA:541,3
DA:542,3
DA:543,3
DA:544,3
DA:545,3
DA:548,3
DA:549,3
DA:550,3
DA:551,3
DA:552,3
DA:553,3
DA:556,1
DA:557,1
DA:558,1
DA:560,1
DA:565,1
DA:566,1
DA:567,1
DA:570,1
DA:571,1
DA:572,1
DA:574,1
DA:577,1
DA:579,1
DA:580,1
DA:581,1
DA:583,1
DA:584,1
DA:585,1
DA:586,1
DA:589,1
DA:590,1
DA:591,1
DA:592,1
DA:594,1
DA:595,1
DA:596,1
DA:598,1
DA:599,1
DA:600,1
DA:602,1
DA:603,1
DA:606,1
DA:609,1
DA:610,1
DA:611,1
DA:614,1
DA:615,1
DA:618,1
DA:619,1
DA:622,1
DA:625,1
DA:626,1
DA:627,1
DA:630,1
DA:633,1
DA:637,1
DA:638,1
DA:639,1
DA:642,1
DA:643,1
DA:646,1
DA:647,1
DA:648,1
DA:651,1
DA:652,1
DA:653,1
DA:656,1
DA:657,1
DA:658,1
DA:661,1
DA:662,1
DA:663,1
DA:665,1
DA:666,1
DA:667,1
DA:670,1
DA:671,1
DA:672,1
DA:675,1
DA:676,1
DA:677,1
DA:680,1
DA:681,1
DA:682,1
DA:684,1
DA:685,1
DA:686,1
DA:687,1
DA:690,1
DA:691,1
DA:694,1
DA:695,1
DA:696,1
DA:699,1
DA:700,1
DA:701,1
DA:704,1
DA:705,1
DA:706,1
DA:709,1
DA:710,1
DA:711,1
DA:714,1
DA:715,1
DA:716,1
DA:717,1
DA:720,1
DA:721,1
DA:724,1
DA:725,1
DA:726,1
DA:728,1
DA:729,1
DA:730,1
DA:733,1
DA:734,1
DA:735,1
DA:738,1
DA:739,1
DA:741,1
DA:742,1
DA:743,1
DA:744,1
DA:745,1
DA:746,1
DA:747,1
DA:748,1
DA:749,1
DA:750,1
DA:751,1
DA:752,1
DA:753,1
DA:754,1
DA:756,1
DA:757,1
DA:758,1
DA:759,1
DA:760,1
DA:761,1
DA:762,1
DA:763,1
DA:764,1
DA:765,1
DA:766,1
DA:767,1
DA:768,1
DA:769,1
DA:770,1
DA:771,1
DA:772,1
DA:773,1
DA:774,1
DA:775,1
DA:776,1
DA:777,1
DA:778,1
DA:779,1
DA:780,1
DA:781,1
DA:782,1
DA:783,1
DA:784,1
DA:785,1
DA:786,1
DA:787,1
DA:788,1
DA:789,1
DA:790,1
DA:793,1
DA:794,1
DA:795,1
DA:796,1
DA:797,1
DA:799,1
DA:802,1
DA:803,1
DA:804,1
DA:805,1
DA:808,1
DA:809,1
DA:812,1
DA:813,1
DA:815,1
DA:816,1
DA:818,1
DA:819,1
DA:821,1
DA:822,1
DA:823,1
BRF:0
BRH:0
LF:473
LH:331
end_of_record
SF:/Users/oliverrice/Documents/supabase/etl/etl-postgres/src/replication/state.rs
FN:31,_RNvMNtNtCshmxvGWyxXY2_12etl_postgres11replication5stateNtB2_21TableReplicationState17to_storage_format
FN:51,_RNvMNtNtCshmxvGWyxXY2_12etl_postgres11replication5stateNtB2_21TableReplicationState21supports_manual_retry
FN:110,_RNvMs_NtNtCshmxvGWyxXY2_12etl_postgres11replication5stateNtB4_24TableReplicationStateRow10state_type
FN:100,_RNvMs_NtNtCshmxvGWyxXY2_12etl_postgres11replication5stateNtB4_24TableReplicationStateRow20deserialize_metadata
FN:285,_RNvNtNtCshmxvGWyxXY2_12etl_postgres11replication5state23reset_replication_state
FN:140,_RNvNtNtCshmxvGWyxXY2_12etl_postgres11replication5state24update_replication_state
FN:215,_RNvNtNtCshmxvGWyxXY2_12etl_postgres11replication5state26rollback_replication_state
FN:156,_RNvNtNtCshmxvGWyxXY2_12etl_postgres11replication5state28update_replication_state_raw
FN:118,_RNvNtNtCshmxvGWyxXY2_12etl_postgres11replication5state32get_table_replication_state_rows
FN:394,_RINvNtNtNtCshmxvGWyxXY2_12etl_postgres11replication5state9lsn_serde11deserializeINtNtNtNtCs70ZOQfte77C_5serde9___private2de7content19ContentDeserializerNtNtCsgEp2nT7LYSq_10serde_json5error5ErrorEEB8_
FN:386,_RINvNtNtNtCshmxvGWyxXY2_12etl_postgres11replication5state9lsn_serde9serializeNtNtNtCsgEp2nT7LYSq_10serde_json5value3ser10SerializerEB8_
FN:386,_RINvNtNtNtCshmxvGWyxXY2_12etl_postgres11replication5state9lsn_serde9serializeNtNtNtCsgEp2nT7LYSq_10serde_json5value3ser15RawValueEmitterEB8_
FN:400,_RNCINvNtNtNtCshmxvGWyxXY2_12etl_postgres11replication5state9lsn_serde11deserializeINtNtNtNtCs70ZOQfte77C_5serde9___private2de7content19ContentDeserializerNtNtCsgEp2nT7LYSq_10serde_json5error5ErrorEE0Ba_
FNDA:0,_RNvMNtNtCshmxvGWyxXY2_12etl_postgres11replication5stateNtB2_21TableReplicationState17to_storage_format
FNDA:0,_RNvMNtNtCshmxvGWyxXY2_12etl_postgres11replication5stateNtB2_21TableReplicationState21supports_manual_retry
FNDA:0,_RNvMs_NtNtCshmxvGWyxXY2_12etl_postgres11replication5stateNtB4_24TableReplicationStateRow10state_type
FNDA:0,_RNvMs_NtNtCshmxvGWyxXY2_12etl_postgres11replication5stateNtB4_24TableReplicationStateRow20deserialize_metadata
FNDA:0,_RNvNtNtCshmxvGWyxXY2_12etl_postgres11replication5state23reset_replication_state
FNDA:0,_RNvNtNtCshmxvGWyxXY2_12etl_postgres11replication5state24update_replication_state
FNDA:0,_RNvNtNtCshmxvGWyxXY2_12etl_postgres11replication5state26rollback_replication_state
FNDA:0,_RNvNtNtCshmxvGWyxXY2_12etl_postgres11replication5state28update_replication_state_raw
FNDA:0,_RNvNtNtCshmxvGWyxXY2_12etl_postgres11replication5state32get_table_replication_state_rows
FNDA:0,_RINvNtNtNtCshmxvGWyxXY2_12etl_postgres11replication5state9lsn_serde11deserializeINtNtNtNtCs70ZOQfte77C_5serde9___private2de7content19ContentDeserializerNtNtCsgEp2nT7LYSq_10serde_json5error5ErrorEEB8_
FNDA:0,_RINvNtNtNtCshmxvGWyxXY2_12etl_postgres11replication5state9lsn_serde9serializeNtNtNtCsgEp2nT7LYSq_10serde_json5value3ser10SerializerEB8_
FNDA:0,_RINvNtNtNtCshmxvGWyxXY2_12etl_postgres11replication5state9lsn_serde9serializeNtNtNtCsgEp2nT7LYSq_10serde_json5value3ser15RawValueEmitterEB8_
FNDA:0,_RNCINvNtNtNtCshmxvGWyxXY2_12etl_postgres11replication5state9lsn_serde11deserializeINtNtNtNtCs70ZOQfte77C_5serde9___private2de7content19ContentDeserializerNtNtCsgEp2nT7LYSq_10serde_json5error5ErrorEE0Ba_
FNF:12
FNH:0
DA:31,0
DA:32,0
DA:33,0
DA:34,0
DA:35,0
DA:36,0
DA:37,0
DA:38,0
DA:39,0
DA:40,0
DA:43,0
DA:45,0
DA:46,0
DA:51,0
DA:52,0
DA:53,0
DA:59,0
DA:100,0
DA:101,0
DA:102,0
DA:106,0
DA:107,0
DA:110,0
DA:111,0
DA:112,0
DA:118,0
DA:119,0
DA:120,0
DA:121,0
DA:140,0
DA:141,0
DA:142,0
DA:143,0
DA:144,0
DA:145,0
DA:156,0
DA:157,0
DA:158,0
DA:159,0
DA:160,0
DA:161,0
DA:162,0
DA:215,0
DA:216,0
DA:217,0
DA:218,0
DA:219,0
DA:285,0
DA:286,0
DA:287,0
DA:288,0
DA:289,0
DA:386,0
DA:387,0
DA:388,0
DA:390,0
DA:391,0
DA:394,0
DA:395,0
DA:396,0
DA:398,0
DA:399,0
DA:400,0
DA:401,0
BRF:0
BRH:0
LF:65
LH:0
end_of_record
SF:/Users/oliverrice/Documents/supabase/etl/etl-postgres/src/schema.rs
FN:32,_RNvMNtCshmxvGWyxXY2_12etl_postgres6schemaNtB2_9TableName20as_quoted_identifier
FN:24,_RNvMNtCshmxvGWyxXY2_12etl_postgres6schemaNtB2_9TableName3new
FN:97,_RNvMs0_NtCshmxvGWyxXY2_12etl_postgres6schemaNtB5_12ColumnSchema10partial_eq
FN:71,_RNvMs0_NtCshmxvGWyxXY2_12etl_postgres6schemaNtB5_12ColumnSchema3new
FN:118,_RNvMs1_NtCshmxvGWyxXY2_12etl_postgres6schemaNtB5_7TableId10into_inner
FN:113,_RNvMs1_NtCshmxvGWyxXY2_12etl_postgres6schemaNtB5_7TableId3new
FN:222,_RNvMs8_NtCshmxvGWyxXY2_12etl_postgres6schemaNtB5_11TableSchema10partial_eq
FN:215,_RNvMs8_NtCshmxvGWyxXY2_12etl_postgres6schemaNtB5_11TableSchema16has_primary_keys
FN:208,_RNvMs8_NtCshmxvGWyxXY2_12etl_postgres6schemaNtB5_11TableSchema17add_column_schema
FN:199,_RNvMs8_NtCshmxvGWyxXY2_12etl_postgres6schemaNtB5_11TableSchema3new
FN:124,_RNvXs2_NtCshmxvGWyxXY2_12etl_postgres6schemaNtB5_7TableIdINtNtCsaNl6UpbT7bw_4core7convert4FrommE4from
FN:130,_RNvXs3_NtCshmxvGWyxXY2_12etl_postgres6schemamINtNtCsaNl6UpbT7bw_4core7convert4FromNtB5_7TableIdE4from
FN:136,_RNvXs4_NtCshmxvGWyxXY2_12etl_postgres6schemaNtB5_7TableIdNtNtCsaNl6UpbT7bw_4core3fmt7Display3fmt
FN:144,_RNvXs5_NtCshmxvGWyxXY2_12etl_postgres6schemaNtB5_7TableIdNtNtNtCsaNl6UpbT7bw_4core3str6traits7FromStr8from_str
FN:157,_RNvXs6_NtCshmxvGWyxXY2_12etl_postgres6schemaNtB5_7TableIdNtCslyMYJbLnOs6_14postgres_types7FromSql7accepts
FN:150,_RNvXs6_NtCshmxvGWyxXY2_12etl_postgres6schemaNtB5_7TableIdNtCslyMYJbLnOs6_14postgres_types7FromSql8from_sql
FN:163,_RNvXs7_NtCshmxvGWyxXY2_12etl_postgres6schemaNtB5_7TableIdNtCslyMYJbLnOs6_14postgres_types5ToSql6to_sql
FN:174,_RNvXs7_NtCshmxvGWyxXY2_12etl_postgres6schemaNtB5_7TableIdNtCslyMYJbLnOs6_14postgres_types5ToSql7accepts
FN:235,_RNvXs9_NtCshmxvGWyxXY2_12etl_postgres6schemaNtB5_11TableSchemaNtNtCsaNl6UpbT7bw_4core3cmp10PartialOrd11partial_cmp
FN:41,_RNvXs_NtCshmxvGWyxXY2_12etl_postgres6schemaNtB4_9TableNameNtNtCsaNl6UpbT7bw_4core3fmt7Display3fmt
FN:241,_RNvXsa_NtCshmxvGWyxXY2_12etl_postgres6schemaNtB5_11TableSchemaNtNtCsaNl6UpbT7bw_4core3cmp3Ord3cmp
FN:230,_RNCNvMs8_NtCshmxvGWyxXY2_12etl_postgres6schemaNtB7_11TableSchema10partial_eq0B9_
FNDA:0,_RNvMNtCshmxvGWyxXY2_12etl_postgres6schemaNtB2_9TableName20as_quoted_identifier
FNDA:5,_RNvMNtCshmxvGWyxXY2_12etl_postgres6schemaNtB2_9TableName3new
FNDA:0,_RNvMs0_NtCshmxvGWyxXY2_12etl_postgres6schemaNtB5_12ColumnSchema10partial_eq
FNDA:0,_RNvMs0_NtCshmxvGWyxXY2_12etl_postgres6schemaNtB5_12ColumnSchema3new
FNDA:0,_RNvMs1_NtCshmxvGWyxXY2_12etl_postgres6schemaNtB5_7TableId10into_inner
FNDA:5,_RNvMs1_NtCshmxvGWyxXY2_12etl_postgres6schemaNtB5_7TableId3new
FNDA:0,_RNvMs8_NtCshmxvGWyxXY2_12etl_postgres6schemaNtB5_11TableSchema10partial_eq
FNDA:0,_RNvMs8_NtCshmxvGWyxXY2_12etl_postgres6schemaNtB5_11TableSchema16has_primary_keys
FNDA:0,_RNvMs8_NtCshmxvGWyxXY2_12etl_postgres6schemaNtB5_11TableSchema17add_column_schema
FNDA:0,_RNvMs8_NtCshmxvGWyxXY2_12etl_postgres6schemaNtB5_11TableSchema3new
FNDA:0,_RNvXs2_NtCshmxvGWyxXY2_12etl_postgres6schemaNtB5_7TableIdINtNtCsaNl6UpbT7bw_4core7convert4FrommE4from
FNDA:0,_RNvXs3_NtCshmxvGWyxXY2_12etl_postgres6schemamINtNtCsaNl6UpbT7bw_4core7convert4FromNtB5_7TableIdE4from
FNDA:4,_RNvXs4_NtCshmxvGWyxXY2_12etl_postgres6schemaNtB5_7TableIdNtNtCsaNl6UpbT7bw_4core3fmt7Display3fmt
FNDA:0,_RNvXs5_NtCshmxvGWyxXY2_12etl_postgres6schemaNtB5_7TableIdNtNtNtCsaNl6UpbT7bw_4core3str6traits7FromStr8from_str
FNDA:0,_RNvXs6_NtCshmxvGWyxXY2_12etl_postgres6schemaNtB5_7TableIdNtCslyMYJbLnOs6_14postgres_types7FromSql7accepts
FNDA:0,_RNvXs6_NtCshmxvGWyxXY2_12etl_postgres6schemaNtB5_7TableIdNtCslyMYJbLnOs6_14postgres_types7FromSql8from_sql
FNDA:0,_RNvXs7_NtCshmxvGWyxXY2_12etl_postgres6schemaNtB5_7TableIdNtCslyMYJbLnOs6_14postgres_types5ToSql6to_sql
FNDA:0,_RNvXs7_NtCshmxvGWyxXY2_12etl_postgres6schemaNtB5_7TableIdNtCslyMYJbLnOs6_14postgres_types5ToSql7accepts
FNDA:0,_RNvXs9_NtCshmxvGWyxXY2_12etl_postgres6schemaNtB5_11TableSchemaNtNtCsaNl6UpbT7bw_4core3cmp10PartialOrd11partial_cmp
FNDA:0,_RNvXs_NtCshmxvGWyxXY2_12etl_postgres6schemaNtB4_9TableNameNtNtCsaNl6UpbT7bw_4core3fmt7Display3fmt
FNDA:0,_RNvXsa_NtCshmxvGWyxXY2_12etl_postgres6schemaNtB5_11TableSchemaNtNtCsaNl6UpbT7bw_4core3cmp3Ord3cmp
FNDA:0,_RNCNvMs8_NtCshmxvGWyxXY2_12etl_postgres6schemaNtB7_11TableSchema10partial_eq0B9_
FNF:22
FNH:3
DA:24,5
DA:25,5
DA:26,5
DA:32,0
DA:33,0
DA:34,0
DA:36,0
DA:37,0
DA:41,0
DA:42,0
DA:43,0
DA:71,0
DA:72,0
DA:73,0
DA:74,0
DA:75,0
DA:76,0
DA:77,0
DA:78,0
DA:79,0
DA:80,0
DA:81,0
DA:82,0
DA:83,0
DA:84,0
DA:85,0
DA:97,0
DA:98,0
DA:99,0
DA:113,5
DA:114,5
DA:115,5
DA:118,0
DA:119,0
DA:120,0
DA:124,0
DA:125,0
DA:126,0
DA:130,0
DA:131,0
DA:132,0
DA:136,4
DA:137,4
DA:138,4
DA:144,0
DA:145,0
DA:146,0
DA:150,0
DA:151,0
DA:152,0
DA:153,0
DA:154,0
DA:155,0
DA:157,0
DA:158,0
DA:159,0
DA:163,0
DA:164,0
DA:165,0
DA:166,0
DA:167,0
DA:168,0
DA:169,0
DA:171,0
DA:172,0
DA:174,0
DA:175,0
DA:176,0
DA:178,0
DA:179,0
DA:199,0
DA:200,0
DA:201,0
DA:202,0
DA:203,0
DA:204,0
DA:205,0
DA:208,0
DA:209,0
DA:210,0
DA:215,0
DA:216,0
DA:217,0
DA:222,0
DA:223,0
DA:224,0
DA:225,0
DA:226,0
DA:227,0
DA:228,0
DA:229,0
DA:230,0
DA:231,0
DA:235,0
DA:236,0
DA:237,0
DA:241,0
DA:242,0
DA:243,0
BRF:0
BRH:0
LF:100
LH:9
end_of_record
SF:/Users/oliverrice/Documents/supabase/etl/etl-postgres/src/time.rs
FN:24,_RNCNvNtCshmxvGWyxXY2_12etl_postgres4time14POSTGRES_EPOCH0B5_
FNDA:0,_RNCNvNtCshmxvGWyxXY2_12etl_postgres4time14POSTGRES_EPOCH0B5_
FNF:1
FNH:0
DA:24,0
BRF:0
BRH:0
LF:1
LH:0
end_of_record
SF:/Users/oliverrice/Documents/supabase/etl/etl-postgres/src/types.rs
FN:7,_RNvNtCshmxvGWyxXY2_12etl_postgres5types24convert_type_oid_to_type
FNDA:0,_RNvNtCshmxvGWyxXY2_12etl_postgres5types24convert_type_oid_to_type
FNF:1
FNH:0
DA:7,0
DA:8,0
DA:9,0
DA:10,0
DA:11,0
DA:12,0
DA:14,0
BRF:0
BRH:0
LF:7
LH:0
end_of_record
SF:/Users/oliverrice/Documents/supabase/etl/etl/src/conversions/bool.rs
FN:10,_RNvNtNtCsgbBGXPKODMY_3etl11conversions4bool10parse_bool
FNDA:0,_RNvNtNtCsgbBGXPKODMY_3etl11conversions4bool10parse_bool
FNF:1
FNH:0
DA:10,0
DA:11,0
DA:12,0
DA:13,0
DA:14,0
DA:16,0
DA:17,0
DA:19,0
DA:22,0
BRF:0
BRH:0
LF:9
LH:0
end_of_record
SF:/Users/oliverrice/Documents/supabase/etl/etl/src/conversions/event.rs
FN:40,_RNvMNtNtCsgbBGXPKODMY_3etl11conversions5eventNtB2_10BeginEvent13from_protocol
FN:113,_RNvMs0_NtNtCsgbBGXPKODMY_3etl11conversions5eventNtB5_13RelationEvent13from_protocol
FN:145,_RNvMs0_NtNtCsgbBGXPKODMY_3etl11conversions5eventNtB5_13RelationEvent19build_column_schema
FN:241,_RNvMs1_NtNtCsgbBGXPKODMY_3etl11conversions5eventNtB5_13TruncateEvent13from_protocol
FN:285,_RNvMs2_NtNtCsgbBGXPKODMY_3etl11conversions5eventNtB5_5Event10event_type
FN:294,_RNvMs2_NtNtCsgbBGXPKODMY_3etl11conversions5eventNtB5_5Event12has_table_id
FN:78,_RNvMs_NtNtCsgbBGXPKODMY_3etl11conversions5eventNtB4_11CommitEvent13from_protocol
FN:406,_RNvNtNtCsgbBGXPKODMY_3etl11conversions5event20convert_tuple_to_row
FN:338,_RNvXs3_NtNtCsgbBGXPKODMY_3etl11conversions5eventNtB5_9EventTypeNtNtCsaNl6UpbT7bw_4core3fmt7Display3fmt
FN:353,_RNvXs4_NtNtCsgbBGXPKODMY_3etl11conversions5eventNtB5_9EventTypeINtNtCsaNl6UpbT7bw_4core7convert4FromRNtB5_5EventE4from
FN:368,_RNvXs5_NtNtCsgbBGXPKODMY_3etl11conversions5eventNtB5_9EventTypeINtNtCsaNl6UpbT7bw_4core7convert4FromNtB5_5EventE4from
FN:301,_RNCNvMs2_NtNtCsgbBGXPKODMY_3etl11conversions5eventNtB7_5Event12has_table_id0Bb_
FNDA:0,_RNvMNtNtCsgbBGXPKODMY_3etl11conversions5eventNtB2_10BeginEvent13from_protocol
FNDA:0,_RNvMs0_NtNtCsgbBGXPKODMY_3etl11conversions5eventNtB5_13RelationEvent13from_protocol
FNDA:0,_RNvMs0_NtNtCsgbBGXPKODMY_3etl11conversions5eventNtB5_13RelationEvent19build_column_schema
FNDA:0,_RNvMs1_NtNtCsgbBGXPKODMY_3etl11conversions5eventNtB5_13TruncateEvent13from_protocol
FNDA:0,_RNvMs2_NtNtCsgbBGXPKODMY_3etl11conversions5eventNtB5_5Event10event_type
FNDA:0,_RNvMs2_NtNtCsgbBGXPKODMY_3etl11conversions5eventNtB5_5Event12has_table_id
FNDA:0,_RNvMs_NtNtCsgbBGXPKODMY_3etl11conversions5eventNtB4_11CommitEvent13from_protocol
FNDA:0,_RNvNtNtCsgbBGXPKODMY_3etl11conversions5event20convert_tuple_to_row
FNDA:0,_RNvXs3_NtNtCsgbBGXPKODMY_3etl11conversions5eventNtB5_9EventTypeNtNtCsaNl6UpbT7bw_4core3fmt7Display3fmt
FNDA:0,_RNvXs4_NtNtCsgbBGXPKODMY_3etl11conversions5eventNtB5_9EventTypeINtNtCsaNl6UpbT7bw_4core7convert4FromRNtB5_5EventE4from
FNDA:0,_RNvXs5_NtNtCsgbBGXPKODMY_3etl11conversions5eventNtB5_9EventTypeINtNtCsaNl6UpbT7bw_4core7convert4FromNtB5_5EventE4from
FNDA:0,_RNCNvMs2_NtNtCsgbBGXPKODMY_3etl11conversions5eventNtB7_5Event12has_table_id0Bb_
FNF:12
FNH:0
DA:40,0
DA:41,0
DA:42,0
DA:43,0
DA:44,0
DA:45,0
DA:46,0
DA:47,0
DA:48,0
DA:49,0
DA:50,0
DA:51,0
DA:78,0
DA:79,0
DA:80,0
DA:81,0
DA:82,0
DA:83,0
DA:84,0
DA:85,0
DA:86,0
DA:87,0
DA:88,0
DA:89,0
DA:90,0
DA:113,0
DA:114,0
DA:115,0
DA:116,0
DA:117,0
DA:118,0
DA:119,0
DA:120,0
DA:122,0
DA:123,0
DA:124,0
DA:125,0
DA:126,0
DA:127,0
DA:128,0
DA:129,0
DA:130,0
DA:133,0
DA:134,0
DA:135,0
DA:136,0
DA:137,0
DA:138,0
DA:145,0
DA:146,0
DA:147,0
DA:148,0
DA:149,0
DA:155,0
DA:157,0
DA:241,0
DA:242,0
DA:243,0
DA:244,0
DA:245,0
DA:246,0
DA:247,0
DA:248,0
DA:249,0
DA:250,0
DA:251,0
DA:252,0
DA:285,0
DA:286,0
DA:287,0
DA:294,0
DA:295,0
DA:296,0
DA:297,0
DA:298,0
DA:299,0
DA:300,0
DA:301,0
DA:302,0
DA:305,0
DA:307,0
DA:309,0
DA:338,0
DA:339,0
DA:340,0
DA:341,0
DA:342,0
DA:343,0
DA:344,0
DA:345,0
DA:346,0
DA:347,0
DA:349,0
DA:353,0
DA:354,0
DA:355,0
DA:356,0
DA:357,0
DA:358,0
DA:359,0
DA:360,0
DA:361,0
DA:362,0
DA:364,0
DA:368,0
DA:369,0
DA:370,0
DA:406,0
DA:407,0
DA:408,0
DA:409,0
DA:410,0
DA:411,0
DA:412,0
DA:414,0
DA:417,0
DA:418,0
DA:419,0
DA:424,0
DA:426,0
DA:427,0
DA:428,0
DA:429,0
DA:433,0
DA:434,0
DA:444,0
DA:445,0
DA:446,0
DA:447,0
DA:449,0
DA:452,0
DA:456,0
DA:457,0
DA:461,0
DA:462,0
DA:463,0
DA:467,0
DA:470,0
DA:471,0
BRF:0
BRH:0
LF:140
LH:0
end_of_record
SF:/Users/oliverrice/Documents/supabase/etl/etl/src/conversions/hex.rs
FN:10,_RNvNtNtCsgbBGXPKODMY_3etl11conversions3hex14from_bytea_hex
FNDA:0,_RNvNtNtCsgbBGXPKODMY_3etl11conversions3hex14from_bytea_hex
FNF:1
FNH:0
DA:10,0
DA:11,0
DA:12,0
DA:13,0
DA:15,0
DA:17,0
DA:19,0
DA:20,0
DA:22,0
DA:23,0
DA:24,0
DA:26,0
DA:28,0
DA:30,0
DA:31,0
DA:32,0
DA:35,0
DA:36,0
BRF:0
BRH:0
LF:18
LH:0
end_of_record
SF:/Users/oliverrice/Documents/supabase/etl/etl/src/conversions/mod.rs
FN:67,_RNvMNtCsgbBGXPKODMY_3etl11conversionsNtB2_4Cell5clear
FN:217,_RNvMs1_NtCsgbBGXPKODMY_3etl11conversionsNtB5_15CellNonOptional5clear
FN:310,_RNvMs3_NtCsgbBGXPKODMY_3etl11conversionsNtB5_20ArrayCellNonOptional5clear
FN:141,_RNvMs_NtCsgbBGXPKODMY_3etl11conversionsNtB4_9ArrayCell5clear
FN:189,_RNvXs0_NtCsgbBGXPKODMY_3etl11conversionsNtB5_15CellNonOptionalINtNtCsaNl6UpbT7bw_4core7convert7TryFromNtB5_4CellE8try_from
FN:286,_RNvXs2_NtCsgbBGXPKODMY_3etl11conversionsNtB5_20ArrayCellNonOptionalINtNtCsaNl6UpbT7bw_4core7convert7TryFromNtB5_9ArrayCellE8try_from
FN:266,_RNCNvXs2_NtCsgbBGXPKODMY_3etl11conversionsNtB7_20ArrayCellNonOptionalINtNtCsaNl6UpbT7bw_4core7convert7TryFromNtB7_9ArrayCellE8try_from0B9_
FN:266,_RNCNvXs2_NtCsgbBGXPKODMY_3etl11conversionsNtB7_20ArrayCellNonOptionalINtNtCsaNl6UpbT7bw_4core7convert7TryFromNtB7_9ArrayCellE8try_froms0_0B9_
FN:266,_RNCNvXs2_NtCsgbBGXPKODMY_3etl11conversionsNtB7_20ArrayCellNonOptionalINtNtCsaNl6UpbT7bw_4core7convert7TryFromNtB7_9ArrayCellE8try_froms1_0B9_
FN:266,_RNCNvXs2_NtCsgbBGXPKODMY_3etl11conversionsNtB7_20ArrayCellNonOptionalINtNtCsaNl6UpbT7bw_4core7convert7TryFromNtB7_9ArrayCellE8try_froms2_0B9_
FN:266,_RNCNvXs2_NtCsgbBGXPKODMY_3etl11conversionsNtB7_20ArrayCellNonOptionalINtNtCsaNl6UpbT7bw_4core7convert7TryFromNtB7_9ArrayCellE8try_froms3_0B9_
FN:266,_RNCNvXs2_NtCsgbBGXPKODMY_3etl11conversionsNtB7_20ArrayCellNonOptionalINtNtCsaNl6UpbT7bw_4core7convert7TryFromNtB7_9ArrayCellE8try_froms4_0B9_
FN:266,_RNCNvXs2_NtCsgbBGXPKODMY_3etl11conversionsNtB7_20ArrayCellNonOptionalINtNtCsaNl6UpbT7bw_4core7convert7TryFromNtB7_9ArrayCellE8try_froms5_0B9_
FN:266,_RNCNvXs2_NtCsgbBGXPKODMY_3etl11conversionsNtB7_20ArrayCellNonOptionalINtNtCsaNl6UpbT7bw_4core7convert7TryFromNtB7_9ArrayCellE8try_froms6_0B9_
FN:266,_RNCNvXs2_NtCsgbBGXPKODMY_3etl11conversionsNtB7_20ArrayCellNonOptionalINtNtCsaNl6UpbT7bw_4core7convert7TryFromNtB7_9ArrayCellE8try_froms7_0B9_
FN:266,_RNCNvXs2_NtCsgbBGXPKODMY_3etl11conversionsNtB7_20ArrayCellNonOptionalINtNtCsaNl6UpbT7bw_4core7convert7TryFromNtB7_9ArrayCellE8try_froms8_0B9_
FN:266,_RNCNvXs2_NtCsgbBGXPKODMY_3etl11conversionsNtB7_20ArrayCellNonOptionalINtNtCsaNl6UpbT7bw_4core7convert7TryFromNtB7_9ArrayCellE8try_froms9_0B9_
FN:266,_RNCNvXs2_NtCsgbBGXPKODMY_3etl11conversionsNtB7_20ArrayCellNonOptionalINtNtCsaNl6UpbT7bw_4core7convert7TryFromNtB7_9ArrayCellE8try_froms_0B9_
FN:266,_RNCNvXs2_NtCsgbBGXPKODMY_3etl11conversionsNtB7_20ArrayCellNonOptionalINtNtCsaNl6UpbT7bw_4core7convert7TryFromNtB7_9ArrayCellE8try_fromsa_0B9_
FN:266,_RNCNvXs2_NtCsgbBGXPKODMY_3etl11conversionsNtB7_20ArrayCellNonOptionalINtNtCsaNl6UpbT7bw_4core7convert7TryFromNtB7_9ArrayCellE8try_fromsb_0B9_
FN:266,_RNCNvXs2_NtCsgbBGXPKODMY_3etl11conversionsNtB7_20ArrayCellNonOptionalINtNtCsaNl6UpbT7bw_4core7convert7TryFromNtB7_9ArrayCellE8try_fromsc_0B9_
FN:266,_RNCNvXs2_NtCsgbBGXPKODMY_3etl11conversionsNtB7_20ArrayCellNonOptionalINtNtCsaNl6UpbT7bw_4core7convert7TryFromNtB7_9ArrayCellE8try_fromsd_0B9_
FNDA:0,_RNvMNtCsgbBGXPKODMY_3etl11conversionsNtB2_4Cell5clear
FNDA:0,_RNvMs1_NtCsgbBGXPKODMY_3etl11conversionsNtB5_15CellNonOptional5clear
FNDA:0,_RNvMs3_NtCsgbBGXPKODMY_3etl11conversionsNtB5_20ArrayCellNonOptional5clear
FNDA:0,_RNvMs_NtCsgbBGXPKODMY_3etl11conversionsNtB4_9ArrayCell5clear
FNDA:0,_RNvXs0_NtCsgbBGXPKODMY_3etl11conversionsNtB5_15CellNonOptionalINtNtCsaNl6UpbT7bw_4core7convert7TryFromNtB5_4CellE8try_from
FNDA:0,_RNvXs2_NtCsgbBGXPKODMY_3etl11conversionsNtB5_20ArrayCellNonOptionalINtNtCsaNl6UpbT7bw_4core7convert7TryFromNtB5_9ArrayCellE8try_from
FNDA:0,_RNCNvXs2_NtCsgbBGXPKODMY_3etl11conversionsNtB7_20ArrayCellNonOptionalINtNtCsaNl6UpbT7bw_4core7convert7TryFromNtB7_9ArrayCellE8try_from0B9_
FNDA:0,_RNCNvXs2_NtCsgbBGXPKODMY_3etl11conversionsNtB7_20ArrayCellNonOptionalINtNtCsaNl6UpbT7bw_4core7convert7TryFromNtB7_9ArrayCellE8try_froms0_0B9_
FNDA:0,_RNCNvXs2_NtCsgbBGXPKODMY_3etl11conversionsNtB7_20ArrayCellNonOptionalINtNtCsaNl6UpbT7bw_4core7convert7TryFromNtB7_9ArrayCellE8try_froms1_0B9_
FNDA:0,_RNCNvXs2_NtCsgbBGXPKODMY_3etl11conversionsNtB7_20ArrayCellNonOptionalINtNtCsaNl6UpbT7bw_4core7convert7TryFromNtB7_9ArrayCellE8try_froms2_0B9_
FNDA:0,_RNCNvXs2_NtCsgbBGXPKODMY_3etl11conversionsNtB7_20ArrayCellNonOptionalINtNtCsaNl6UpbT7bw_4core7convert7TryFromNtB7_9ArrayCellE8try_froms3_0B9_
FNDA:0,_RNCNvXs2_NtCsgbBGXPKODMY_3etl11conversionsNtB7_20ArrayCellNonOptionalINtNtCsaNl6UpbT7bw_4core7convert7TryFromNtB7_9ArrayCellE8try_froms4_0B9_
FNDA:0,_RNCNvXs2_NtCsgbBGXPKODMY_3etl11conversionsNtB7_20ArrayCellNonOptionalINtNtCsaNl6UpbT7bw_4core7convert7TryFromNtB7_9ArrayCellE8try_froms5_0B9_
FNDA:0,_RNCNvXs2_NtCsgbBGXPKODMY_3etl11conversionsNtB7_20ArrayCellNonOptionalINtNtCsaNl6UpbT7bw_4core7convert7TryFromNtB7_9ArrayCellE8try_froms6_0B9_
FNDA:0,_RNCNvXs2_NtCsgbBGXPKODMY_3etl11conversionsNtB7_20ArrayCellNonOptionalINtNtCsaNl6UpbT7bw_4core7convert7TryFromNtB7_9ArrayCellE8try_froms7_0B9_
FNDA:0,_RNCNvXs2_NtCsgbBGXPKODMY_3etl11conversionsNtB7_20ArrayCellNonOptionalINtNtCsaNl6UpbT7bw_4core7convert7TryFromNtB7_9ArrayCellE8try_froms8_0B9_
FNDA:0,_RNCNvXs2_NtCsgbBGXPKODMY_3etl11conversionsNtB7_20ArrayCellNonOptionalINtNtCsaNl6UpbT7bw_4core7convert7TryFromNtB7_9ArrayCellE8try_froms9_0B9_
FNDA:0,_RNCNvXs2_NtCsgbBGXPKODMY_3etl11conversionsNtB7_20ArrayCellNonOptionalINtNtCsaNl6UpbT7bw_4core7convert7TryFromNtB7_9ArrayCellE8try_froms_0B9_
FNDA:0,_RNCNvXs2_NtCsgbBGXPKODMY_3etl11conversionsNtB7_20ArrayCellNonOptionalINtNtCsaNl6UpbT7bw_4core7convert7TryFromNtB7_9ArrayCellE8try_fromsa_0B9_
FNDA:0,_RNCNvXs2_NtCsgbBGXPKODMY_3etl11conversionsNtB7_20ArrayCellNonOptionalINtNtCsaNl6UpbT7bw_4core7convert7TryFromNtB7_9ArrayCellE8try_fromsb_0B9_
FNDA:0,_RNCNvXs2_NtCsgbBGXPKODMY_3etl11conversionsNtB7_20ArrayCellNonOptionalINtNtCsaNl6UpbT7bw_4core7convert7TryFromNtB7_9ArrayCellE8try_fromsc_0B9_
FNDA:0,_RNCNvXs2_NtCsgbBGXPKODMY_3etl11conversionsNtB7_20ArrayCellNonOptionalINtNtCsaNl6UpbT7bw_4core7convert7TryFromNtB7_9ArrayCellE8try_fromsd_0B9_
FNF:7
FNH:0
DA:67,0
DA:68,0
DA:69,0
DA:70,0
DA:71,0
DA:72,0
DA:73,0
DA:74,0
DA:75,0
DA:76,0
DA:77,0
DA:78,0
DA:79,0
DA:80,0
DA:81,0
DA:82,0
DA:83,0
DA:84,0
DA:85,0
DA:86,0
DA:87,0
DA:88,0
DA:90,0
DA:141,0
DA:142,0
DA:143,0
DA:144,0
DA:145,0
DA:146,0
DA:147,0
DA:148,0
DA:149,0
DA:150,0
DA:151,0
DA:152,0
DA:153,0
DA:154,0
DA:155,0
DA:156,0
DA:157,0
DA:158,0
DA:159,0
DA:161,0
DA:189,0
DA:190,0
DA:191,0
DA:192,0
DA:193,0
DA:194,0
DA:195,0
DA:196,0
DA:197,0
DA:198,0
DA:199,0
DA:200,0
DA:201,0
DA:202,0
DA:203,0
DA:204,0
DA:205,0
DA:206,0
DA:207,0
DA:208,0
DA:209,0
DA:210,0
DA:213,0
DA:217,0
DA:218,0
DA:219,0
DA:220,0
DA:221,0
DA:222,0
DA:223,0
DA:224,0
DA:225,0
DA:226,0
DA:227,0
DA:228,0
DA:229,0
DA:230,0
DA:231,0
DA:232,0
DA:233,0
DA:234,0
DA:235,0
DA:236,0
DA:237,0
DA:238,0
DA:240,0
DA:266,0
DA:286,0
DA:287,0
DA:288,0
DA:289,0
DA:290,0
DA:291,0
DA:292,0
DA:293,0
DA:294,0
DA:295,0
DA:296,0
DA:297,0
DA:298,0
DA:299,0
DA:300,0
DA:301,0
DA:302,0
DA:303,0
DA:304,0
DA:306,0
DA:310,0
DA:311,0
DA:312,0
DA:313,0
DA:314,0
DA:315,0
DA:316,0
DA:317,0
DA:318,0
DA:319,0
DA:320,0
DA:321,0
DA:322,0
DA:323,0
DA:324,0
DA:325,0
DA:326,0
DA:327,0
DA:328,0
DA:330,0
BRF:0
BRH:0
LF:130
LH:0
end_of_record
SF:/Users/oliverrice/Documents/supabase/etl/etl/src/conversions/numeric.rs
FN:239,_RNvNtNtCsgbBGXPKODMY_3etl11conversions7numeric15skip_whitespace
FN:293,_RNvNtNtCsgbBGXPKODMY_3etl11conversions7numeric19parse_numeric_value
FN:265,_RNvNtNtCsgbBGXPKODMY_3etl11conversions7numeric19parse_special_value
FN:485,_RNvNtNtCsgbBGXPKODMY_3etl11conversions7numeric19strip_leading_zeros
FN:530,_RNvNtNtCsgbBGXPKODMY_3etl11conversions7numeric20format_numeric_value
FN:499,_RNvNtNtCsgbBGXPKODMY_3etl11conversions7numeric20strip_trailing_zeros
FN:417,_RNvNtNtCsgbBGXPKODMY_3etl11conversions7numeric21convert_to_base_10000
FN:36,_RNvXNtNtCsgbBGXPKODMY_3etl11conversions7numericNtB2_4SignINtNtCsaNl6UpbT7bw_4core7convert7TryFromtE8try_from
FN:92,_RNvXs0_NtNtCsgbBGXPKODMY_3etl11conversions7numericNtB5_9PgNumericNtNtCsaNl6UpbT7bw_4core7default7Default7default
FN:100,_RNvXs1_NtNtCsgbBGXPKODMY_3etl11conversions7numericNtB5_9PgNumericNtNtNtCsaNl6UpbT7bw_4core3str6traits7FromStr8from_str
FN:174,_RNvXs2_NtNtCsgbBGXPKODMY_3etl11conversions7numericNtB5_9PgNumericNtCslyMYJbLnOs6_14postgres_types7FromSql7accepts
FN:134,_RNvXs2_NtNtCsgbBGXPKODMY_3etl11conversions7numericNtB5_9PgNumericNtCslyMYJbLnOs6_14postgres_types7FromSql8from_sql
FN:180,_RNvXs3_NtNtCsgbBGXPKODMY_3etl11conversions7numericNtB5_9PgNumericNtCslyMYJbLnOs6_14postgres_types5ToSql6to_sql
FN:216,_RNvXs3_NtNtCsgbBGXPKODMY_3etl11conversions7numericNtB5_9PgNumericNtCslyMYJbLnOs6_14postgres_types5ToSql7accepts
FN:250,_RNvXs4_NtNtCsgbBGXPKODMY_3etl11conversions7numericNtB5_17ParseNumericErrorNtNtCsaNl6UpbT7bw_4core3fmt7Display3fmt
FN:510,_RNvXs6_NtNtCsgbBGXPKODMY_3etl11conversions7numericNtB5_9PgNumericNtNtCsaNl6UpbT7bw_4core3fmt7Display3fmt
FN:46,_RNvXs_NtNtCsgbBGXPKODMY_3etl11conversions7numerictINtNtCsaNl6UpbT7bw_4core7convert4FromNtB4_4SignE4from
FNDA:0,_RNvNtNtCsgbBGXPKODMY_3etl11conversions7numeric15skip_whitespace
FNDA:0,_RNvNtNtCsgbBGXPKODMY_3etl11conversions7numeric19parse_numeric_value
FNDA:0,_RNvNtNtCsgbBGXPKODMY_3etl11conversions7numeric19parse_special_value
FNDA:0,_RNvNtNtCsgbBGXPKODMY_3etl11conversions7numeric19strip_leading_zeros
FNDA:0,_RNvNtNtCsgbBGXPKODMY_3etl11conversions7numeric20format_numeric_value
FNDA:0,_RNvNtNtCsgbBGXPKODMY_3etl11conversions7numeric20strip_trailing_zeros
FNDA:0,_RNvNtNtCsgbBGXPKODMY_3etl11conversions7numeric21convert_to_base_10000
FNDA:0,_RNvXNtNtCsgbBGXPKODMY_3etl11conversions7numericNtB2_4SignINtNtCsaNl6UpbT7bw_4core7convert7TryFromtE8try_from
FNDA:0,_RNvXs0_NtNtCsgbBGXPKODMY_3etl11conversions7numericNtB5_9PgNumericNtNtCsaNl6UpbT7bw_4core7default7Default7default
FNDA:0,_RNvXs1_NtNtCsgbBGXPKODMY_3etl11conversions7numericNtB5_9PgNumericNtNtNtCsaNl6UpbT7bw_4core3str6traits7FromStr8from_str
FNDA:0,_RNvXs2_NtNtCsgbBGXPKODMY_3etl11conversions7numericNtB5_9PgNumericNtCslyMYJbLnOs6_14postgres_types7FromSql7accepts
FNDA:0,_RNvXs2_NtNtCsgbBGXPKODMY_3etl11conversions7numericNtB5_9PgNumericNtCslyMYJbLnOs6_14postgres_types7FromSql8from_sql
FNDA:0,_RNvXs3_NtNtCsgbBGXPKODMY_3etl11conversions7numericNtB5_9PgNumericNtCslyMYJbLnOs6_14postgres_types5ToSql6to_sql
FNDA:0,_RNvXs3_NtNtCsgbBGXPKODMY_3etl11conversions7numericNtB5_9PgNumericNtCslyMYJbLnOs6_14postgres_types5ToSql7accepts
FNDA:0,_RNvXs4_NtNtCsgbBGXPKODMY_3etl11conversions7numericNtB5_17ParseNumericErrorNtNtCsaNl6UpbT7bw_4core3fmt7Display3fmt
FNDA:0,_RNvXs6_NtNtCsgbBGXPKODMY_3etl11conversions7numericNtB5_9PgNumericNtNtCsaNl6UpbT7bw_4core3fmt7Display3fmt
FNDA:0,_RNvXs_NtNtCsgbBGXPKODMY_3etl11conversions7numerictINtNtCsaNl6UpbT7bw_4core7convert4FromNtB4_4SignE4from
FNF:17
FNH:0
DA:36,0
DA:37,0
DA:38,0
DA:39,0
DA:40,0
DA:42,0
DA:46,0
DA:47,0
DA:48,0
DA:49,0
DA:51,0
DA:92,0
DA:93,0
DA:94,0
DA:100,0
DA:101,0
DA:104,0
DA:106,0
DA:107,0
DA:108,0
DA:111,0
DA:113,0
DA:114,0
DA:117,0
DA:118,0
DA:120,0
DA:124,0
DA:125,0
DA:126,0
DA:129,0
DA:130,0
DA:134,0
DA:135,0
DA:136,0
DA:137,0
DA:138,0
DA:140,0
DA:142,0
DA:144,0
DA:145,0
DA:146,0
DA:147,0
DA:148,0
DA:149,0
DA:150,0
DA:151,0
DA:152,0
DA:153,0
DA:154,0
DA:155,0
DA:159,0
DA:161,0
DA:162,0
DA:163,0
DA:166,0
DA:167,0
DA:168,0
DA:169,0
DA:170,0
DA:171,0
DA:172,0
DA:174,0
DA:175,0
DA:176,0
DA:180,0
DA:181,0
DA:182,0
DA:183,0
DA:184,0
DA:185,0
DA:186,0
DA:187,0
DA:188,0
DA:191,0
DA:192,0
DA:193,0
DA:194,0
DA:197,0
DA:198,0
DA:199,0
DA:200,0
DA:203,0
DA:204,0
DA:205,0
DA:206,0
DA:207,0
DA:209,0
DA:210,0
DA:211,0
DA:213,0
DA:214,0
DA:216,0
DA:217,0
DA:218,0
DA:239,0
DA:240,0
DA:241,0
DA:242,0
DA:243,0
DA:244,0
DA:247,0
DA:250,0
DA:251,0
DA:252,0
DA:253,0
DA:255,0
DA:265,0
DA:266,0
DA:267,0
DA:268,0
DA:269,0
DA:270,0
DA:272,0
DA:274,0
DA:275,0
DA:276,0
DA:277,0
DA:278,0
DA:279,0
DA:280,0
DA:281,0
DA:284,0
DA:286,0
DA:293,0
DA:294,0
DA:295,0
DA:296,0
DA:297,0
DA:298,0
DA:299,0
DA:300,0
DA:303,0
DA:304,0
DA:305,0
DA:306,0
DA:309,0
DA:310,0
DA:311,0
DA:314,0
DA:315,0
DA:316,0
DA:317,0
DA:318,0
DA:319,0
DA:320,0
DA:321,0
DA:322,0
DA:323,0
DA:326,0
DA:327,0
DA:328,0
DA:329,0
DA:330,0
DA:332,0
DA:333,0
DA:334,0
DA:337,0
DA:339,0
DA:340,0
DA:341,0
DA:343,0
DA:348,0
DA:349,0
DA:350,0
DA:351,0
DA:354,0
DA:355,0
DA:356,0
DA:357,0
DA:358,0
DA:359,0
DA:360,0
DA:361,0
DA:362,0
DA:366,0
DA:367,0
DA:368,0
DA:370,0
DA:371,0
DA:372,0
DA:373,0
DA:374,0
DA:375,0
DA:376,0
DA:377,0
DA:380,0
DA:381,0
DA:382,0
DA:383,0
DA:385,0
DA:389,0
DA:390,0
DA:391,0
DA:393,0
DA:394,0
DA:395,0
DA:397,0
DA:399,0
DA:402,0
DA:403,0
DA:404,0
DA:405,0
DA:408,0
DA:409,0
DA:417,0
DA:418,0
DA:419,0
DA:420,0
DA:421,0
DA:422,0
DA:423,0
DA:424,0
DA:425,0
DA:426,0
DA:427,0
DA:428,0
DA:429,0
DA:430,0
DA:434,0
DA:435,0
DA:437,0
DA:441,0
DA:442,0
DA:443,0
DA:446,0
DA:447,0
DA:449,0
DA:450,0
DA:451,0
DA:452,0
DA:456,0
DA:457,0
DA:458,0
DA:459,0
DA:460,0
DA:461,0
DA:462,0
DA:466,0
DA:467,0
DA:470,0
DA:471,0
DA:473,0
DA:474,0
DA:475,0
DA:476,0
DA:477,0
DA:478,0
DA:479,0
DA:485,0
DA:486,0
DA:487,0
DA:488,0
DA:489,0
DA:490,0
DA:493,0
DA:499,0
DA:500,0
DA:501,0
DA:502,0
DA:503,0
DA:504,0
DA:507,0
DA:510,0
DA:511,0
DA:512,0
DA:513,0
DA:514,0
DA:516,0
DA:517,0
DA:518,0
DA:519,0
DA:520,0
DA:522,0
DA:530,0
DA:531,0
DA:532,0
DA:533,0
DA:534,0
DA:535,0
DA:536,0
DA:538,0
DA:539,0
DA:540,0
DA:543,0
DA:544,0
DA:545,0
DA:547,0
DA:549,0
DA:552,0
DA:553,0
DA:554,0
DA:556,0
DA:560,0
DA:562,0
DA:564,0
DA:565,0
DA:566,0
DA:568,0
DA:572,0
DA:578,0
DA:579,0
DA:581,0
DA:582,0
DA:584,0
DA:585,0
DA:586,0
DA:588,0
DA:592,0
DA:595,0
DA:596,0
DA:597,0
DA:598,0
DA:599,0
DA:602,0
DA:603,0
DA:605,0
DA:607,0
DA:608,0
BRF:0
BRH:0
LF:318
LH:0
end_of_record
SF:/Users/oliverrice/Documents/supabase/etl/etl/src/conversions/table_row.rs
FN:26,_RNvMNtNtCsgbBGXPKODMY_3etl11conversions9table_rowNtB2_8TableRow3new
FN:47,_RNvMs_NtNtCsgbBGXPKODMY_3etl11conversions9table_rowNtB4_17TableRowConverter8try_from
FNDA:0,_RNvMNtNtCsgbBGXPKODMY_3etl11conversions9table_rowNtB2_8TableRow3new
FNDA:0,_RNvMs_NtNtCsgbBGXPKODMY_3etl11conversions9table_rowNtB4_17TableRowConverter8try_from
FNF:2
FNH:0
DA:26,0
DA:27,0
DA:28,0
DA:47,0
DA:48,0
DA:50,0
DA:51,0
DA:52,0
DA:53,0
DA:54,0
DA:55,0
DA:56,0
DA:59,0
DA:62,0
DA:63,0
DA:65,0
DA:67,0
DA:68,0
DA:69,0
DA:70,0
DA:72,0
DA:73,0
DA:74,0
DA:75,0
DA:76,0
DA:77,0
DA:78,0
DA:79,0
DA:80,0
DA:81,0
DA:82,0
DA:83,0
DA:84,0
DA:86,0
DA:87,0
DA:88,0
DA:90,0
DA:94,0
DA:98,0
DA:99,0
DA:102,0
DA:104,0
DA:105,0
DA:106,0
DA:111,0
DA:112,0
DA:113,0
DA:114,0
DA:116,0
DA:122,0
DA:124,0
DA:125,0
DA:126,0
DA:128,0
DA:129,0
DA:130,0
DA:131,0
DA:137,0
DA:141,0
DA:146,0
DA:147,0
DA:148,0
DA:150,0
DA:151,0
DA:154,0
DA:160,0
DA:161,0
DA:162,0
DA:168,0
DA:169,0
DA:170,0
DA:172,0
DA:173,0
DA:174,0
DA:175,0
DA:178,0
DA:180,0
DA:181,0
BRF:0
BRH:0
LF:78
LH:0
end_of_record
SF:/Users/oliverrice/Documents/supabase/etl/etl/src/conversions/text.rs
FN:102,_RNvMNtNtCsgbBGXPKODMY_3etl11conversions4textNtB2_19TextFormatConverter12try_from_str
FN:31,_RNvMNtNtCsgbBGXPKODMY_3etl11conversions4textNtB2_19TextFormatConverter13default_value
FN:268,_RINvMNtNtCsgbBGXPKODMY_3etl11conversions4textNtB3_19TextFormatConverter11parse_arrayNCNvB2_12try_from_str0NcNtNtB5_9ArrayCell4Bool0bEB7_
FN:268,_RINvMNtNtCsgbBGXPKODMY_3etl11conversions4textNtB3_19TextFormatConverter11parse_arrayNCNvB2_12try_from_strs0_0NcNtNtB5_9ArrayCell3I160sEB7_
FN:268,_RINvMNtNtCsgbBGXPKODMY_3etl11conversions4textNtB3_19TextFormatConverter11parse_arrayNCNvB2_12try_from_strs1_0NcNtNtB5_9ArrayCell3I320lEB7_
FN:268,_RINvMNtNtCsgbBGXPKODMY_3etl11conversions4textNtB3_19TextFormatConverter11parse_arrayNCNvB2_12try_from_strs2_0NcNtNtB5_9ArrayCell3I640xEB7_
FN:268,_RINvMNtNtCsgbBGXPKODMY_3etl11conversions4textNtB3_19TextFormatConverter11parse_arrayNCNvB2_12try_from_strs3_0NcNtNtB5_9ArrayCell3F320fEB7_
FN:268,_RINvMNtNtCsgbBGXPKODMY_3etl11conversions4textNtB3_19TextFormatConverter11parse_arrayNCNvB2_12try_from_strs4_0NcNtNtB5_9ArrayCell3F640dEB7_
FN:268,_RINvMNtNtCsgbBGXPKODMY_3etl11conversions4textNtB3_19TextFormatConverter11parse_arrayNCNvB2_12try_from_strs5_0NcNtNtB5_9ArrayCell7Numeric0NtNtB5_7numeric9PgNumericEB7_
FN:268,_RINvMNtNtCsgbBGXPKODMY_3etl11conversions4textNtB3_19TextFormatConverter11parse_arrayNCNvB2_12try_from_strs6_0NcNtNtB5_9ArrayCell5Bytes0INtNtCsiTraAjBDcu4_5alloc3vec3VechEEB7_
FN:268,_RINvMNtNtCsgbBGXPKODMY_3etl11conversions4textNtB3_19TextFormatConverter11parse_arrayNCNvB2_12try_from_strs7_0NcNtNtB5_9ArrayCell4Date0NtNtNtCsaR5ncRhZZVU_6chrono5naive4date9NaiveDateEB7_
FN:268,_RINvMNtNtCsgbBGXPKODMY_3etl11conversions4textNtB3_19TextFormatConverter11parse_arrayNCNvB2_12try_from_strs8_0NcNtNtB5_9ArrayCell4Time0NtNtNtCsaR5ncRhZZVU_6chrono5naive4time9NaiveTimeEB7_
FN:268,_RINvMNtNtCsgbBGXPKODMY_3etl11conversions4textNtB3_19TextFormatConverter11parse_arrayNCNvB2_12try_from_strs9_0NcNtNtB5_9ArrayCell9TimeStamp0NtNtNtCsaR5ncRhZZVU_6chrono5naive8datetime13NaiveDateTimeEB7_
FN:268,_RINvMNtNtCsgbBGXPKODMY_3etl11conversions4textNtB3_19TextFormatConverter11parse_arrayNCNvB2_12try_from_strs_0NcNtNtB5_9ArrayCell6String0NtNtCsiTraAjBDcu4_5alloc6string6StringEB7_
FN:268,_RINvMNtNtCsgbBGXPKODMY_3etl11conversions4textNtB3_19TextFormatConverter11parse_arrayNCNvB2_12try_from_strsa_0NcNtNtB5_9ArrayCell11TimeStampTz0INtNtCsaR5ncRhZZVU_6chrono8datetime8DateTimeNtNtNtB2l_6offset3utc3UtcEEB7_
FN:268,_RINvMNtNtCsgbBGXPKODMY_3etl11conversions4textNtB3_19TextFormatConverter11parse_arrayNCNvB2_12try_from_strsb_0NcNtNtB5_9ArrayCell11TimeStampTz0INtNtCsaR5ncRhZZVU_6chrono8datetime8DateTimeNtNtNtB2l_6offset3utc3UtcEEB7_
FN:268,_RINvMNtNtCsgbBGXPKODMY_3etl11conversions4textNtB3_19TextFormatConverter11parse_arrayNCNvB2_12try_from_strsc_0NcNtNtB5_9ArrayCell4Uuid0NtCs37HzTBOdVtx_4uuid4UuidEB7_
FN:268,_RINvMNtNtCsgbBGXPKODMY_3etl11conversions4textNtB3_19TextFormatConverter11parse_arrayNCNvB2_12try_from_strsd_0NcNtNtB5_9ArrayCell4Json0NtNtCsgEp2nT7LYSq_10serde_json5value5ValueEB7_
FN:268,_RINvMNtNtCsgbBGXPKODMY_3etl11conversions4textNtB3_19TextFormatConverter11parse_arrayNCNvB2_12try_from_strse_0NcNtNtB5_9ArrayCell3U320mEB7_
FN:107,_RNCNvMNtNtCsgbBGXPKODMY_3etl11conversions4textNtB4_19TextFormatConverter12try_from_str0B8_
FN:124,_RNCNvMNtNtCsgbBGXPKODMY_3etl11conversions4textNtB4_19TextFormatConverter12try_from_strs0_0B8_
FN:128,_RNCNvMNtNtCsgbBGXPKODMY_3etl11conversions4textNtB4_19TextFormatConverter12try_from_strs1_0B8_
FN:132,_RNCNvMNtNtCsgbBGXPKODMY_3etl11conversions4textNtB4_19TextFormatConverter12try_from_strs2_0B8_
FN:136,_RNCNvMNtNtCsgbBGXPKODMY_3etl11conversions4textNtB4_19TextFormatConverter12try_from_strs3_0B8_
FN:140,_RNCNvMNtNtCsgbBGXPKODMY_3etl11conversions4textNtB4_19TextFormatConverter12try_from_strs4_0B8_
FN:145,_RNCNvMNtNtCsgbBGXPKODMY_3etl11conversions4textNtB4_19TextFormatConverter12try_from_strs5_0B8_
FN:151,_RNCNvMNtNtCsgbBGXPKODMY_3etl11conversions4textNtB4_19TextFormatConverter12try_from_strs6_0B8_
FN:160,_RNCNvMNtNtCsgbBGXPKODMY_3etl11conversions4textNtB4_19TextFormatConverter12try_from_strs7_0B8_
FN:169,_RNCNvMNtNtCsgbBGXPKODMY_3etl11conversions4textNtB4_19TextFormatConverter12try_from_strs8_0B8_
FN:178,_RNCNvMNtNtCsgbBGXPKODMY_3etl11conversions4textNtB4_19TextFormatConverter12try_from_strs9_0B8_
FN:119,_RNCNvMNtNtCsgbBGXPKODMY_3etl11conversions4textNtB4_19TextFormatConverter12try_from_strs_0B8_
FN:194,_RNCNvMNtNtCsgbBGXPKODMY_3etl11conversions4textNtB4_19TextFormatConverter12try_from_strsa_0B8_
FN:205,_RNCNvMNtNtCsgbBGXPKODMY_3etl11conversions4textNtB4_19TextFormatConverter12try_from_strsb_0B8_
FN:224,_RNCNvMNtNtCsgbBGXPKODMY_3etl11conversions4textNtB4_19TextFormatConverter12try_from_strsc_0B8_
FN:233,_RNCNvMNtNtCsgbBGXPKODMY_3etl11conversions4textNtB4_19TextFormatConverter12try_from_strsd_0B8_
FN:241,_RNCNvMNtNtCsgbBGXPKODMY_3etl11conversions4textNtB4_19TextFormatConverter12try_from_strse_0B8_
FNDA:0,_RNvMNtNtCsgbBGXPKODMY_3etl11conversions4textNtB2_19TextFormatConverter12try_from_str
FNDA:0,_RNvMNtNtCsgbBGXPKODMY_3etl11conversions4textNtB2_19TextFormatConverter13default_value
FNDA:0,_RINvMNtNtCsgbBGXPKODMY_3etl11conversions4textNtB3_19TextFormatConverter11parse_arrayNCNvB2_12try_from_str0NcNtNtB5_9ArrayCell4Bool0bEB7_
FNDA:0,_RINvMNtNtCsgbBGXPKODMY_3etl11conversions4textNtB3_19TextFormatConverter11parse_arrayNCNvB2_12try_from_strs0_0NcNtNtB5_9ArrayCell3I160sEB7_
FNDA:0,_RINvMNtNtCsgbBGXPKODMY_3etl11conversions4textNtB3_19TextFormatConverter11parse_arrayNCNvB2_12try_from_strs1_0NcNtNtB5_9ArrayCell3I320lEB7_
FNDA:0,_RINvMNtNtCsgbBGXPKODMY_3etl11conversions4textNtB3_19TextFormatConverter11parse_arrayNCNvB2_12try_from_strs2_0NcNtNtB5_9ArrayCell3I640xEB7_
FNDA:0,_RINvMNtNtCsgbBGXPKODMY_3etl11conversions4textNtB3_19TextFormatConverter11parse_arrayNCNvB2_12try_from_strs3_0NcNtNtB5_9ArrayCell3F320fEB7_
FNDA:0,_RINvMNtNtCsgbBGXPKODMY_3etl11conversions4textNtB3_19TextFormatConverter11parse_arrayNCNvB2_12try_from_strs4_0NcNtNtB5_9ArrayCell3F640dEB7_
FNDA:0,_RINvMNtNtCsgbBGXPKODMY_3etl11conversions4textNtB3_19TextFormatConverter11parse_arrayNCNvB2_12try_from_strs5_0NcNtNtB5_9ArrayCell7Numeric0NtNtB5_7numeric9PgNumericEB7_
FNDA:0,_RINvMNtNtCsgbBGXPKODMY_3etl11conversions4textNtB3_19TextFormatConverter11parse_arrayNCNvB2_12try_from_strs6_0NcNtNtB5_9ArrayCell5Bytes0INtNtCsiTraAjBDcu4_5alloc3vec3VechEEB7_
FNDA:0,_RINvMNtNtCsgbBGXPKODMY_3etl11conversions4textNtB3_19TextFormatConverter11parse_arrayNCNvB2_12try_from_strs7_0NcNtNtB5_9ArrayCell4Date0NtNtNtCsaR5ncRhZZVU_6chrono5naive4date9NaiveDateEB7_
FNDA:0,_RINvMNtNtCsgbBGXPKODMY_3etl11conversions4textNtB3_19TextFormatConverter11parse_arrayNCNvB2_12try_from_strs8_0NcNtNtB5_9ArrayCell4Time0NtNtNtCsaR5ncRhZZVU_6chrono5naive4time9NaiveTimeEB7_
FNDA:0,_RINvMNtNtCsgbBGXPKODMY_3etl11conversions4textNtB3_19TextFormatConverter11parse_arrayNCNvB2_12try_from_strs9_0NcNtNtB5_9ArrayCell9TimeStamp0NtNtNtCsaR5ncRhZZVU_6chrono5naive8datetime13NaiveDateTimeEB7_
FNDA:0,_RINvMNtNtCsgbBGXPKODMY_3etl11conversions4textNtB3_19TextFormatConverter11parse_arrayNCNvB2_12try_from_strs_0NcNtNtB5_9ArrayCell6String0NtNtCsiTraAjBDcu4_5alloc6string6StringEB7_
FNDA:0,_RINvMNtNtCsgbBGXPKODMY_3etl11conversions4textNtB3_19TextFormatConverter11parse_arrayNCNvB2_12try_from_strsa_0NcNtNtB5_9ArrayCell11TimeStampTz0INtNtCsaR5ncRhZZVU_6chrono8datetime8DateTimeNtNtNtB2l_6offset3utc3UtcEEB7_
FNDA:0,_RINvMNtNtCsgbBGXPKODMY_3etl11conversions4textNtB3_19TextFormatConverter11parse_arrayNCNvB2_12try_from_strsb_0NcNtNtB5_9ArrayCell11TimeStampTz0INtNtCsaR5ncRhZZVU_6chrono8datetime8DateTimeNtNtNtB2l_6offset3utc3UtcEEB7_
FNDA:0,_RINvMNtNtCsgbBGXPKODMY_3etl11conversions4textNtB3_19TextFormatConverter11parse_arrayNCNvB2_12try_from_strsc_0NcNtNtB5_9ArrayCell4Uuid0NtCs37HzTBOdVtx_4uuid4UuidEB7_
FNDA:0,_RINvMNtNtCsgbBGXPKODMY_3etl11conversions4textNtB3_19TextFormatConverter11parse_arrayNCNvB2_12try_from_strsd_0NcNtNtB5_9ArrayCell4Json0NtNtCsgEp2nT7LYSq_10serde_json5value5ValueEB7_
FNDA:0,_RINvMNtNtCsgbBGXPKODMY_3etl11conversions4textNtB3_19TextFormatConverter11parse_arrayNCNvB2_12try_from_strse_0NcNtNtB5_9ArrayCell3U320mEB7_
FNDA:0,_RNCNvMNtNtCsgbBGXPKODMY_3etl11conversions4textNtB4_19TextFormatConverter12try_from_str0B8_
FNDA:0,_RNCNvMNtNtCsgbBGXPKODMY_3etl11conversions4textNtB4_19TextFormatConverter12try_from_strs0_0B8_
FNDA:0,_RNCNvMNtNtCsgbBGXPKODMY_3etl11conversions4textNtB4_19TextFormatConverter12try_from_strs1_0B8_
FNDA:0,_RNCNvMNtNtCsgbBGXPKODMY_3etl11conversions4textNtB4_19TextFormatConverter12try_from_strs2_0B8_
FNDA:0,_RNCNvMNtNtCsgbBGXPKODMY_3etl11conversions4textNtB4_19TextFormatConverter12try_from_strs3_0B8_
FNDA:0,_RNCNvMNtNtCsgbBGXPKODMY_3etl11conversions4textNtB4_19TextFormatConverter12try_from_strs4_0B8_
FNDA:0,_RNCNvMNtNtCsgbBGXPKODMY_3etl11conversions4textNtB4_19TextFormatConverter12try_from_strs5_0B8_
FNDA:0,_RNCNvMNtNtCsgbBGXPKODMY_3etl11conversions4textNtB4_19TextFormatConverter12try_from_strs6_0B8_
FNDA:0,_RNCNvMNtNtCsgbBGXPKODMY_3etl11conversions4textNtB4_19TextFormatConverter12try_from_strs7_0B8_
FNDA:0,_RNCNvMNtNtCsgbBGXPKODMY_3etl11conversions4textNtB4_19TextFormatConverter12try_from_strs8_0B8_
FNDA:0,_RNCNvMNtNtCsgbBGXPKODMY_3etl11conversions4textNtB4_19TextFormatConverter12try_from_strs9_0B8_
FNDA:0,_RNCNvMNtNtCsgbBGXPKODMY_3etl11conversions4textNtB4_19TextFormatConverter12try_from_strs_0B8_
FNDA:0,_RNCNvMNtNtCsgbBGXPKODMY_3etl11conversions4textNtB4_19TextFormatConverter12try_from_strsa_0B8_
FNDA:0,_RNCNvMNtNtCsgbBGXPKODMY_3etl11conversions4textNtB4_19TextFormatConverter12try_from_strsb_0B8_
FNDA:0,_RNCNvMNtNtCsgbBGXPKODMY_3etl11conversions4textNtB4_19TextFormatConverter12try_from_strsc_0B8_
FNDA:0,_RNCNvMNtNtCsgbBGXPKODMY_3etl11conversions4textNtB4_19TextFormatConverter12try_from_strsd_0B8_
FNDA:0,_RNCNvMNtNtCsgbBGXPKODMY_3etl11conversions4textNtB4_19TextFormatConverter12try_from_strse_0B8_
FNF:20
FNH:0
DA:31,0
DA:37,0
DA:38,0
DA:39,0
DA:41,0
DA:47,0
DA:48,0
DA:49,0
DA:50,0
DA:51,0
DA:52,0
DA:53,0
DA:54,0
DA:55,0
DA:56,0
DA:57,0
DA:58,0
DA:59,0
DA:60,0
DA:61,0
DA:62,0
DA:63,0
DA:64,0
DA:65,0
DA:66,0
DA:67,0
DA:68,0
DA:69,0
DA:70,0
DA:71,0
DA:72,0
DA:74,0
DA:76,0
DA:77,0
DA:82,0
DA:83,0
DA:85,0
DA:86,0
DA:87,0
DA:92,0
DA:102,0
DA:103,0
DA:104,0
DA:105,0
DA:106,0
DA:107,0
DA:111,0
DA:117,0
DA:118,0
DA:119,0
DA:122,0
DA:124,0
DA:126,0
DA:128,0
DA:130,0
DA:132,0
DA:134,0
DA:136,0
DA:138,0
DA:140,0
DA:142,0
DA:143,0
DA:144,0
DA:145,0
DA:148,0
DA:149,0
DA:150,0
DA:151,0
DA:155,0
DA:156,0
DA:158,0
DA:159,0
DA:160,0
DA:164,0
DA:165,0
DA:167,0
DA:168,0
DA:169,0
DA:173,0
DA:174,0
DA:176,0
DA:177,0
DA:178,0
DA:182,0
DA:183,0
DA:184,0
DA:186,0
DA:189,0
DA:192,0
DA:193,0
DA:194,0
DA:196,0
DA:197,0
DA:199,0
DA:202,0
DA:203,0
DA:204,0
DA:205,0
DA:207,0
DA:208,0
DA:209,0
DA:210,0
DA:211,0
DA:213,0
DA:219,0
DA:220,0
DA:222,0
DA:223,0
DA:224,0
DA:228,0
DA:229,0
DA:231,0
DA:232,0
DA:233,0
DA:237,0
DA:238,0
DA:241,0
DA:247,0
DA:248,0
DA:250,0
DA:251,0
DA:252,0
DA:257,0
DA:268,0
DA:269,0
DA:270,0
DA:271,0
DA:273,0
DA:274,0
DA:275,0
DA:277,0
DA:278,0
DA:279,0
DA:282,0
DA:284,0
DA:285,0
DA:286,0
DA:287,0
DA:288,0
DA:289,0
DA:290,0
DA:291,0
DA:293,0
DA:295,0
DA:296,0
DA:297,0
DA:298,0
DA:299,0
DA:300,0
DA:302,0
DA:303,0
DA:304,0
DA:305,0
DA:307,0
DA:308,0
DA:309,0
DA:311,0
DA:312,0
DA:313,0
DA:316,0
DA:317,0
DA:322,0
DA:323,0
DA:325,0
DA:328,0
DA:329,0
DA:330,0
DA:333,0
DA:334,0
BRF:0
BRH:0
LF:175
LH:0
end_of_record
SF:/Users/oliverrice/Documents/supabase/etl/etl/src/error.rs
FN:140,_RNCNvMNtCsgbBGXPKODMY_3etl5errorNtB4_8EtlError4kind0B6_
FN:155,_RNCNvMNtCsgbBGXPKODMY_3etl5errorNtB4_8EtlError5kinds0B6_
FN:169,_RNCNvMNtCsgbBGXPKODMY_3etl5errorNtB4_8EtlError6detail0B6_
FN:188,_RNCNvXs_NtCsgbBGXPKODMY_3etl5errorNtB6_8EtlErrorNtNtCsaNl6UpbT7bw_4core3cmp9PartialEq2eq0B8_
FN:134,_RNvMNtCsgbBGXPKODMY_3etl5errorNtB2_8EtlError4kind
FN:124,_RNvMNtCsgbBGXPKODMY_3etl5errorNtB2_8EtlError4many
FN:149,_RNvMNtCsgbBGXPKODMY_3etl5errorNtB2_8EtlError5kinds
FN:164,_RNvMNtCsgbBGXPKODMY_3etl5errorNtB2_8EtlError6detail
FN:196,_RNvXs0_NtCsgbBGXPKODMY_3etl5errorNtB5_8EtlErrorNtNtCsaNl6UpbT7bw_4core3fmt7Display3fmt
FN:236,_RNvXs2_NtCsgbBGXPKODMY_3etl5errorNtB5_8EtlErrorINtNtCsaNl6UpbT7bw_4core7convert4FromTNtB5_9ErrorKindReEE4from
FN:245,_RNvXs3_NtCsgbBGXPKODMY_3etl5errorNtB5_8EtlErrorINtNtCsaNl6UpbT7bw_4core7convert4FromTNtB5_9ErrorKindReNtNtCsiTraAjBDcu4_5alloc6string6StringEE4from
FN:268,_RNvXs5_NtCsgbBGXPKODMY_3etl5errorNtB5_8EtlErrorINtNtCsaNl6UpbT7bw_4core7convert4FromNtNtNtCsht3nMU9UgFu_3std2io5error5ErrorE4from
FN:284,_RNvXs6_NtCsgbBGXPKODMY_3etl5errorNtB5_8EtlErrorINtNtCsaNl6UpbT7bw_4core7convert4FromNtNtCsgEp2nT7LYSq_10serde_json5error5ErrorE4from
FN:305,_RNvXs7_NtCsgbBGXPKODMY_3etl5errorNtB5_8EtlErrorINtNtCsaNl6UpbT7bw_4core7convert4FromNtNtNtBO_3str5error9Utf8ErrorE4from
FN:318,_RNvXs8_NtCsgbBGXPKODMY_3etl5errorNtB5_8EtlErrorINtNtCsaNl6UpbT7bw_4core7convert4FromNtNtCsiTraAjBDcu4_5alloc6string13FromUtf8ErrorE4from
FN:331,_RNvXs9_NtCsgbBGXPKODMY_3etl5errorNtB5_8EtlErrorINtNtCsaNl6UpbT7bw_4core7convert4FromNtNtNtBO_3num5error13ParseIntErrorE4from
FN:177,_RNvXs_NtCsgbBGXPKODMY_3etl5errorNtB4_8EtlErrorNtNtCsaNl6UpbT7bw_4core3cmp9PartialEq2eq
FN:344,_RNvXsa_NtCsgbBGXPKODMY_3etl5errorNtB5_8EtlErrorINtNtCsaNl6UpbT7bw_4core7convert4FromNtNtNtBO_3num7dec2flt15ParseFloatErrorE4from
FN:360,_RNvXsb_NtCsgbBGXPKODMY_3etl5errorNtB5_8EtlErrorINtNtCsaNl6UpbT7bw_4core7convert4FromNtNtCsgtuV9QR8IqY_14tokio_postgres5error5ErrorE4from
FN:673,_RNvXsc_NtCsgbBGXPKODMY_3etl5errorNtB5_8EtlErrorINtNtCsaNl6UpbT7bw_4core7convert4FromNtNtCshGFbfLzst3Q_6rustls5error5ErrorE4from
FN:686,_RNvXsd_NtCsgbBGXPKODMY_3etl5errorNtB5_8EtlErrorINtNtCsaNl6UpbT7bw_4core7convert4FromNtNtCs37HzTBOdVtx_4uuid5error5ErrorE4from
FN:699,_RNvXse_NtCsgbBGXPKODMY_3etl5errorNtB5_8EtlErrorINtNtCsaNl6UpbT7bw_4core7convert4FromNtNtCsaR5ncRhZZVU_6chrono6format10ParseErrorE4from
FN:712,_RNvXsf_NtCsgbBGXPKODMY_3etl5errorNtB5_8EtlErrorINtNtCsaNl6UpbT7bw_4core7convert4FromNtNtNtB7_11conversions7numeric17ParseNumericErrorE4from
FN:728,_RNvXsg_NtCsgbBGXPKODMY_3etl5errorNtB5_8EtlErrorINtNtCsaNl6UpbT7bw_4core7convert4FromNtNtCsddADkJSjmOd_9sqlx_core5error5ErrorE4from
FN:750,_RNvXsh_NtCsgbBGXPKODMY_3etl5errorNtB5_8EtlErrorINtNtCsaNl6UpbT7bw_4core7convert4FromNtNtNtCshmxvGWyxXY2_12etl_postgres11replication5slots9SlotErrorE4from
FNDA:0,_RNCNvMNtCsgbBGXPKODMY_3etl5errorNtB4_8EtlError4kind0B6_
FNDA:0,_RNCNvMNtCsgbBGXPKODMY_3etl5errorNtB4_8EtlError5kinds0B6_
FNDA:0,_RNCNvMNtCsgbBGXPKODMY_3etl5errorNtB4_8EtlError6detail0B6_
FNDA:0,_RNCNvXs_NtCsgbBGXPKODMY_3etl5errorNtB6_8EtlErrorNtNtCsaNl6UpbT7bw_4core3cmp9PartialEq2eq0B8_
FNDA:1,_RNvMNtCsgbBGXPKODMY_3etl5errorNtB2_8EtlError4kind
FNDA:0,_RNvMNtCsgbBGXPKODMY_3etl5errorNtB2_8EtlError4many
FNDA:0,_RNvMNtCsgbBGXPKODMY_3etl5errorNtB2_8EtlError5kinds
FNDA:0,_RNvMNtCsgbBGXPKODMY_3etl5errorNtB2_8EtlError6detail
FNDA:1,_RNvXs0_NtCsgbBGXPKODMY_3etl5errorNtB5_8EtlErrorNtNtCsaNl6UpbT7bw_4core3fmt7Display3fmt
FNDA:0,_RNvXs2_NtCsgbBGXPKODMY_3etl5errorNtB5_8EtlErrorINtNtCsaNl6UpbT7bw_4core7convert4FromTNtB5_9ErrorKindReEE4from
FNDA:2,_RNvXs3_NtCsgbBGXPKODMY_3etl5errorNtB5_8EtlErrorINtNtCsaNl6UpbT7bw_4core7convert4FromTNtB5_9ErrorKindReNtNtCsiTraAjBDcu4_5alloc6string6StringEE4from
FNDA:0,_RNvXs5_NtCsgbBGXPKODMY_3etl5errorNtB5_8EtlErrorINtNtCsaNl6UpbT7bw_4core7convert4FromNtNtNtCsht3nMU9UgFu_3std2io5error5ErrorE4from
FNDA:0,_RNvXs6_NtCsgbBGXPKODMY_3etl5errorNtB5_8EtlErrorINtNtCsaNl6UpbT7bw_4core7convert4FromNtNtCsgEp2nT7LYSq_10serde_json5error5ErrorE4from
FNDA:0,_RNvXs7_NtCsgbBGXPKODMY_3etl5errorNtB5_8EtlErrorINtNtCsaNl6UpbT7bw_4core7convert4FromNtNtNtBO_3str5error9Utf8ErrorE4from
FNDA:0,_RNvXs8_NtCsgbBGXPKODMY_3etl5errorNtB5_8EtlErrorINtNtCsaNl6UpbT7bw_4core7convert4FromNtNtCsiTraAjBDcu4_5alloc6string13FromUtf8ErrorE4from
FNDA:0,_RNvXs9_NtCsgbBGXPKODMY_3etl5errorNtB5_8EtlErrorINtNtCsaNl6UpbT7bw_4core7convert4FromNtNtNtBO_3num5error13ParseIntErrorE4from
FNDA:0,_RNvXs_NtCsgbBGXPKODMY_3etl5errorNtB4_8EtlErrorNtNtCsaNl6UpbT7bw_4core3cmp9PartialEq2eq
FNDA:0,_RNvXsa_NtCsgbBGXPKODMY_3etl5errorNtB5_8EtlErrorINtNtCsaNl6UpbT7bw_4core7convert4FromNtNtNtBO_3num7dec2flt15ParseFloatErrorE4from
FNDA:0,_RNvXsb_NtCsgbBGXPKODMY_3etl5errorNtB5_8EtlErrorINtNtCsaNl6UpbT7bw_4core7convert4FromNtNtCsgtuV9QR8IqY_14tokio_postgres5error5ErrorE4from
FNDA:0,_RNvXsc_NtCsgbBGXPKODMY_3etl5errorNtB5_8EtlErrorINtNtCsaNl6UpbT7bw_4core7convert4FromNtNtCshGFbfLzst3Q_6rustls5error5ErrorE4from
FNDA:0,_RNvXsd_NtCsgbBGXPKODMY_3etl5errorNtB5_8EtlErrorINtNtCsaNl6UpbT7bw_4core7convert4FromNtNtCs37HzTBOdVtx_4uuid5error5ErrorE4from
FNDA:0,_RNvXse_NtCsgbBGXPKODMY_3etl5errorNtB5_8EtlErrorINtNtCsaNl6UpbT7bw_4core7convert4FromNtNtCsaR5ncRhZZVU_6chrono6format10ParseErrorE4from
FNDA:0,_RNvXsf_NtCsgbBGXPKODMY_3etl5errorNtB5_8EtlErrorINtNtCsaNl6UpbT7bw_4core7convert4FromNtNtNtB7_11conversions7numeric17ParseNumericErrorE4from
FNDA:0,_RNvXsg_NtCsgbBGXPKODMY_3etl5errorNtB5_8EtlErrorINtNtCsaNl6UpbT7bw_4core7convert4FromNtNtCsddADkJSjmOd_9sqlx_core5error5ErrorE4from
FNDA:0,_RNvXsh_NtCsgbBGXPKODMY_3etl5errorNtB5_8EtlErrorINtNtCsaNl6UpbT7bw_4core7convert4FromNtNtNtCshmxvGWyxXY2_12etl_postgres11replication5slots9SlotErrorE4from
FNF:25
FNH:3
DA:124,0
DA:125,0
DA:126,0
DA:127,0
DA:128,0
DA:134,1
DA:135,1
DA:136,0
DA:137,1
DA:138,0
DA:139,0
DA:140,0
DA:141,0
DA:143,1
DA:149,0
DA:150,0
DA:151,0
DA:152,0
DA:153,0
DA:154,0
DA:155,0
DA:156,0
DA:158,0
DA:164,0
DA:165,0
DA:166,0
DA:167,0
DA:169,0
DA:171,0
DA:173,0
DA:177,0
DA:178,0
DA:179,0
DA:180,0
DA:183,0
DA:184,0
DA:185,0
DA:186,0
DA:187,0
DA:188,0
DA:190,0
DA:192,0
DA:196,1
DA:197,1
DA:198,0
DA:199,0
DA:200,0
DA:201,0
DA:203,0
DA:205,1
DA:206,1
DA:207,1
DA:208,1
DA:209,1
DA:210,1
DA:212,1
DA:214,0
DA:215,0
DA:216,0
DA:217,0
DA:219,0
DA:221,0
DA:222,0
DA:223,0
DA:226,0
DA:229,1
DA:236,0
DA:237,0
DA:238,0
DA:239,0
DA:240,0
DA:245,2
DA:246,2
DA:247,2
DA:248,2
DA:249,2
DA:268,0
DA:269,0
DA:270,0
DA:271,0
DA:272,0
DA:273,0
DA:274,0
DA:275,0
DA:276,0
DA:284,0
DA:285,0
DA:286,0
DA:287,0
DA:288,0
DA:289,0
DA:290,0
DA:291,0
DA:292,0
DA:293,0
DA:294,0
DA:297,0
DA:298,0
DA:299,0
DA:300,0
DA:305,0
DA:306,0
DA:307,0
DA:308,0
DA:309,0
DA:310,0
DA:311,0
DA:312,0
DA:313,0
DA:318,0
DA:319,0
DA:320,0
DA:321,0
DA:322,0
DA:323,0
DA:324,0
DA:325,0
DA:326,0
DA:331,0
DA:332,0
DA:333,0
DA:334,0
DA:335,0
DA:336,0
DA:337,0
DA:338,0
DA:339,0
DA:344,0
DA:345,0
DA:346,0
DA:347,0
DA:348,0
DA:349,0
DA:350,0
DA:351,0
DA:352,0
DA:360,0
DA:361,0
DA:362,0
DA:365,0
DA:371,0
DA:372,0
DA:373,0
DA:374,0
DA:377,0
DA:378,0
DA:379,0
DA:380,0
DA:387,0
DA:388,0
DA:389,0
DA:390,0
DA:397,0
DA:398,0
DA:399,0
DA:400,0
DA:406,0
DA:407,0
DA:408,0
DA:409,0
DA:414,0
DA:415,0
DA:416,0
DA:417,0
DA:422,0
DA:423,0
DA:424,0
DA:425,0
DA:432,0
DA:437,0
DA:439,0
DA:442,0
DA:443,0
DA:444,0
DA:445,0
DA:446,0
DA:447,0
DA:448,0
DA:449,0
DA:450,0
DA:451,0
DA:452,0
DA:453,0
DA:454,0
DA:455,0
DA:456,0
DA:457,0
DA:458,0
DA:459,0
DA:460,0
DA:461,0
DA:463,0
DA:465,0
DA:466,0
DA:467,0
DA:468,0
DA:471,0
DA:472,0
DA:473,0
DA:474,0
DA:476,0
DA:478,0
DA:479,0
DA:480,0
DA:481,0
DA:487,0
DA:488,0
DA:489,0
DA:490,0
DA:493,0
DA:494,0
DA:495,0
DA:496,0
DA:497,0
DA:503,0
DA:504,0
DA:505,0
DA:506,0
DA:510,0
DA:515,0
DA:520,0
DA:524,0
DA:525,0
DA:526,0
DA:527,0
DA:530,0
DA:531,0
DA:532,0
DA:533,0
DA:537,0
DA:538,0
DA:539,0
DA:540,0
DA:548,0
DA:562,0
DA:563,0
DA:564,0
DA:565,0
DA:573,0
DA:577,0
DA:578,0
DA:579,0
DA:580,0
DA:586,0
DA:591,0
DA:593,0
DA:594,0
DA:595,0
DA:596,0
DA:612,0
DA:613,0
DA:614,0
DA:615,0
DA:618,0
DA:619,0
DA:620,0
DA:621,0
DA:625,0
DA:651,0
DA:655,0
DA:659,0
DA:660,0
DA:661,0
DA:662,0
DA:665,0
DA:666,0
DA:667,0
DA:668,0
DA:673,0
DA:674,0
DA:675,0
DA:676,0
DA:677,0
DA:678,0
DA:679,0
DA:680,0
DA:681,0
DA:686,0
DA:687,0
DA:688,0
DA:689,0
DA:690,0
DA:691,0
DA:692,0
DA:693,0
DA:694,0
DA:699,0
DA:700,0
DA:701,0
DA:702,0
DA:703,0
DA:704,0
DA:705,0
DA:706,0
DA:707,0
DA:712,0
DA:713,0
DA:714,0
DA:715,0
DA:716,0
DA:717,0
DA:718,0
DA:719,0
DA:720,0
DA:728,0
DA:729,0
DA:730,0
DA:731,0
DA:733,0
DA:735,0
DA:738,0
DA:739,0
DA:740,0
DA:741,0
DA:742,0
DA:743,0
DA:744,0
DA:745,0
DA:750,0
DA:751,0
DA:752,0
DA:753,0
DA:754,0
DA:755,0
DA:756,0
DA:757,0
DA:758,0
DA:759,0
DA:762,0
BRF:0
BRH:0
LF:333
LH:19
end_of_record
SF:/Users/oliverrice/Documents/supabase/etl/etl/src/replication/apply.rs
FN:708,_RNCNvNtNtCsgbBGXPKODMY_3etl11replication5apply14get_commit_lsn0B7_
FNDA:0,_RNCNvNtNtCsgbBGXPKODMY_3etl11replication5apply14get_commit_lsn0B7_
FNF:1
FNH:0
DA:708,0
DA:709,0
DA:710,0
DA:712,0
DA:714,0
BRF:0
BRH:0
LF:5
LH:0
end_of_record
SF:/Users/oliverrice/Documents/supabase/etl/etl/src/state/table.rs
FN:57,_RNvMNtNtCsgbBGXPKODMY_3etl5state5tableNtB2_21TableReplicationError12retry_policy
FN:67,_RNvMNtNtCsgbBGXPKODMY_3etl5state5tableNtB2_21TableReplicationError14from_etl_error
FN:52,_RNvMNtNtCsgbBGXPKODMY_3etl5state5tableNtB2_21TableReplicationError8table_id
FN:250,_RNvMs0_NtNtCsgbBGXPKODMY_3etl5state5tableNtB5_21TableReplicationPhase7as_type
FN:281,_RNvMs2_NtNtCsgbBGXPKODMY_3etl5state5tableNtB5_25TableReplicationPhaseType12should_store
FN:298,_RNvMs2_NtNtCsgbBGXPKODMY_3etl5state5tableNtB5_25TableReplicationPhaseType7is_done
FN:189,_RNvMs_NtNtCsgbBGXPKODMY_3etl5state5tableNtB4_11RetryPolicy8retry_in
FN:256,_RNvXs1_NtNtCsgbBGXPKODMY_3etl5state5tableNtB5_21TableReplicationPhaseINtNtCsaNl6UpbT7bw_4core7convert4FromNtB5_21TableReplicationErrorE4from
FN:313,_RNvXs3_NtNtCsgbBGXPKODMY_3etl5state5tableNtB5_25TableReplicationPhaseTypeINtNtCsaNl6UpbT7bw_4core7convert4FromRNtB5_21TableReplicationPhaseE4from
FN:328,_RNvXs4_NtNtCsgbBGXPKODMY_3etl5state5tableNtB5_25TableReplicationPhaseTypeNtNtCsaNl6UpbT7bw_4core3fmt7Display3fmt
FN:23,_RINvMNtNtCsgbBGXPKODMY_3etl5state5tableNtB3_21TableReplicationError13with_solutionRNtNtB7_5error8EtlErrorReEB7_
FN:38,_RINvMNtNtCsgbBGXPKODMY_3etl5state5tableNtB3_21TableReplicationError16without_solutionRNtNtB7_5error8EtlErrorEB7_
FNDA:0,_RNvMNtNtCsgbBGXPKODMY_3etl5state5tableNtB2_21TableReplicationError12retry_policy
FNDA:0,_RNvMNtNtCsgbBGXPKODMY_3etl5state5tableNtB2_21TableReplicationError14from_etl_error
FNDA:0,_RNvMNtNtCsgbBGXPKODMY_3etl5state5tableNtB2_21TableReplicationError8table_id
FNDA:0,_RNvMs0_NtNtCsgbBGXPKODMY_3etl5state5tableNtB5_21TableReplicationPhase7as_type
FNDA:0,_RNvMs2_NtNtCsgbBGXPKODMY_3etl5state5tableNtB5_25TableReplicationPhaseType12should_store
FNDA:0,_RNvMs2_NtNtCsgbBGXPKODMY_3etl5state5tableNtB5_25TableReplicationPhaseType7is_done
FNDA:0,_RNvMs_NtNtCsgbBGXPKODMY_3etl5state5tableNtB4_11RetryPolicy8retry_in
FNDA:0,_RNvXs1_NtNtCsgbBGXPKODMY_3etl5state5tableNtB5_21TableReplicationPhaseINtNtCsaNl6UpbT7bw_4core7convert4FromNtB5_21TableReplicationErrorE4from
FNDA:0,_RNvXs3_NtNtCsgbBGXPKODMY_3etl5state5tableNtB5_25TableReplicationPhaseTypeINtNtCsaNl6UpbT7bw_4core7convert4FromRNtB5_21TableReplicationPhaseE4from
FNDA:0,_RNvXs4_NtNtCsgbBGXPKODMY_3etl5state5tableNtB5_25TableReplicationPhaseTypeNtNtCsaNl6UpbT7bw_4core3fmt7Display3fmt
FNDA:0,_RINvMNtNtCsgbBGXPKODMY_3etl5state5tableNtB3_21TableReplicationError13with_solutionRNtNtB7_5error8EtlErrorReEB7_
FNDA:0,_RINvMNtNtCsgbBGXPKODMY_3etl5state5tableNtB3_21TableReplicationError16without_solutionRNtNtB7_5error8EtlErrorEB7_
FNF:12
FNH:0
DA:23,0
DA:24,0
DA:25,0
DA:26,0
DA:27,0
DA:28,0
DA:29,0
DA:30,0
DA:31,0
DA:32,0
DA:33,0
DA:34,0
DA:35,0
DA:38,0
DA:39,0
DA:40,0
DA:41,0
DA:42,0
DA:43,0
DA:44,0
DA:45,0
DA:46,0
DA:47,0
DA:48,0
DA:49,0
DA:52,0
DA:53,0
DA:54,0
DA:57,0
DA:58,0
DA:59,0
DA:67,0
DA:68,0
DA:69,0
DA:72,0
DA:75,0
DA:78,0
DA:81,0
DA:84,0
DA:87,0
DA:91,0
DA:92,0
DA:93,0
DA:95,0
DA:97,0
DA:98,0
DA:99,0
DA:101,0
DA:103,0
DA:104,0
DA:105,0
DA:107,0
DA:109,0
DA:110,0
DA:111,0
DA:113,0
DA:115,0
DA:116,0
DA:117,0
DA:119,0
DA:121,0
DA:122,0
DA:123,0
DA:125,0
DA:127,0
DA:128,0
DA:129,0
DA:131,0
DA:133,0
DA:134,0
DA:135,0
DA:137,0
DA:167,0
DA:168,0
DA:169,0
DA:171,0
DA:174,0
DA:189,0
DA:190,0
DA:191,0
DA:192,0
DA:193,0
DA:250,0
DA:251,0
DA:252,0
DA:256,0
DA:257,0
DA:258,0
DA:259,0
DA:260,0
DA:261,0
DA:262,0
DA:281,0
DA:282,0
DA:283,0
DA:284,0
DA:285,0
DA:286,0
DA:287,0
DA:288,0
DA:289,0
DA:290,0
DA:292,0
DA:298,0
DA:299,0
DA:300,0
DA:301,0
DA:302,0
DA:303,0
DA:304,0
DA:305,0
DA:306,0
DA:307,0
DA:309,0
DA:313,0
DA:314,0
DA:315,0
DA:316,0
DA:317,0
DA:318,0
DA:319,0
DA:320,0
DA:321,0
DA:322,0
DA:324,0
DA:328,0
DA:329,0
DA:330,0
DA:331,0
DA:332,0
DA:333,0
DA:334,0
DA:335,0
DA:336,0
DA:337,0
DA:339,0
BRF:0
BRH:0
LF:136
LH:0
end_of_record
SF:/Users/oliverrice/Documents/supabase/etl/etl/src/store/both/postgres.rs
FN:75,_RNvXs_NtNtNtCsgbBGXPKODMY_3etl5store4both8postgresNtNtNtBa_5state5table21TableReplicationPhaseINtNtCsaNl6UpbT7bw_4core7convert7TryFromNtNtNtCshmxvGWyxXY2_12etl_postgres11replication5state24TableReplicationStateRowE8try_from
FN:78,_RNCNvXs_NtNtNtCsgbBGXPKODMY_3etl5store4both8postgresNtNtNtBc_5state5table21TableReplicationPhaseINtNtCsaNl6UpbT7bw_4core7convert7TryFromNtNtNtCshmxvGWyxXY2_12etl_postgres11replication5state24TableReplicationStateRowE8try_from0Bc_
FNDA:0,_RNvXs_NtNtNtCsgbBGXPKODMY_3etl5store4both8postgresNtNtNtBa_5state5table21TableReplicationPhaseINtNtCsaNl6UpbT7bw_4core7convert7TryFromNtNtNtCshmxvGWyxXY2_12etl_postgres11replication5state24TableReplicationStateRowE8try_from
FNDA:0,_RNCNvXs_NtNtNtCsgbBGXPKODMY_3etl5store4both8postgresNtNtNtBc_5state5table21TableReplicationPhaseINtNtCsaNl6UpbT7bw_4core7convert7TryFromNtNtNtCshmxvGWyxXY2_12etl_postgres11replication5state24TableReplicationStateRowE8try_from0Bc_
FNF:2
FNH:0
DA:75,0
DA:78,0
DA:79,0
DA:80,0
DA:82,0
DA:83,0
DA:86,0
DA:88,0
DA:89,0
DA:91,0
DA:97,0
DA:98,0
DA:99,0
DA:100,0
DA:101,0
DA:102,0
DA:104,0
DA:106,0
DA:107,0
DA:108,0
DA:110,0
DA:111,0
DA:112,0
DA:113,0
DA:114,0
DA:118,0
DA:119,0
DA:120,0
DA:121,0
DA:122,0
DA:125,0
BRF:0
BRH:0
LF:33
LH:0
end_of_record
SF:/Users/oliverrice/Documents/supabase/etl/etl/src/test_utils/notify.rs
FN:288,_RNCNCNvXs3_NtNtCsgbBGXPKODMY_3etl10test_utils6notifyNtB9_14NotifyingStoreNtNtCsaNl6UpbT7bw_4core3fmt5Debug3fmt00Bd_
FN:287,_RNCNvXs3_NtNtCsgbBGXPKODMY_3etl10test_utils6notifyNtB7_14NotifyingStoreNtNtCsaNl6UpbT7bw_4core3fmt5Debug3fmt0Bb_
FNDA:0,_RNCNCNvXs3_NtNtCsgbBGXPKODMY_3etl10test_utils6notifyNtB9_14NotifyingStoreNtNtCsaNl6UpbT7bw_4core3fmt5Debug3fmt00Bd_
FNDA:0,_RNCNvXs3_NtNtCsgbBGXPKODMY_3etl10test_utils6notifyNtB7_14NotifyingStoreNtNtCsaNl6UpbT7bw_4core3fmt5Debug3fmt0Bb_
FNF:2
FNH:0
DA:287,0
DA:288,0
DA:289,0
BRF:0
BRH:0
LF:4
LH:0
end_of_record